	.section	__TEXT,__text,regular,pure_instructions
	.section	__TEXT,__textcoal_nt,coalesced,pure_instructions
	.globl	__ZNSt3__16vectorIP6ObjectNS_9allocatorIS2_EEED1Ev
	.weak_def_can_be_hidden	__ZNSt3__16vectorIP6ObjectNS_9allocatorIS2_EEED1Ev
	.align	4, 0x90
__ZNSt3__16vectorIP6ObjectNS_9allocatorIS2_EEED1Ev: ## @_ZNSt3__16vectorIP6ObjectNS_9allocatorIS2_EEED1Ev
	.cfi_startproc
## BB#0:
	pushq	%rbp
Ltmp2:
	.cfi_def_cfa_offset 16
Ltmp3:
	.cfi_offset %rbp, -16
	movq	%rsp, %rbp
Ltmp4:
	.cfi_def_cfa_register %rbp
	movq	%rdi, %rax
	movq	(%rax), %rdi
	testq	%rdi, %rdi
	je	LBB0_4
## BB#1:
	movq	8(%rax), %rcx
	cmpq	%rdi, %rcx
	je	LBB0_3
## BB#2:                                ## %.lr.ph.i.i.i.i
	leaq	-8(%rcx), %rdx
	subq	%rdi, %rdx
	notq	%rdx
	andq	$-8, %rdx
	addq	%rcx, %rdx
	movq	%rdx, 8(%rax)
LBB0_3:                                 ## %_ZNSt3__113__vector_baseIP6ObjectNS_9allocatorIS2_EEE5clearEv.exit.i.i
	popq	%rbp
	jmp	__ZdlPv                 ## TAILCALL
LBB0_4:                                 ## %_ZNSt3__16vectorIP6ObjectNS_9allocatorIS2_EEED2Ev.exit
	popq	%rbp
	retq
	.cfi_endproc

	.globl	__ZNSt3__16vectorIP8MaterialNS_9allocatorIS2_EEED1Ev
	.weak_def_can_be_hidden	__ZNSt3__16vectorIP8MaterialNS_9allocatorIS2_EEED1Ev
	.align	4, 0x90
__ZNSt3__16vectorIP8MaterialNS_9allocatorIS2_EEED1Ev: ## @_ZNSt3__16vectorIP8MaterialNS_9allocatorIS2_EEED1Ev
	.cfi_startproc
## BB#0:
	pushq	%rbp
Ltmp7:
	.cfi_def_cfa_offset 16
Ltmp8:
	.cfi_offset %rbp, -16
	movq	%rsp, %rbp
Ltmp9:
	.cfi_def_cfa_register %rbp
	movq	%rdi, %rax
	movq	(%rax), %rdi
	testq	%rdi, %rdi
	je	LBB1_4
## BB#1:
	movq	8(%rax), %rcx
	cmpq	%rdi, %rcx
	je	LBB1_3
## BB#2:                                ## %.lr.ph.i.i.i.i
	leaq	-8(%rcx), %rdx
	subq	%rdi, %rdx
	notq	%rdx
	andq	$-8, %rdx
	addq	%rcx, %rdx
	movq	%rdx, 8(%rax)
LBB1_3:                                 ## %_ZNSt3__113__vector_baseIP8MaterialNS_9allocatorIS2_EEE5clearEv.exit.i.i
	popq	%rbp
	jmp	__ZdlPv                 ## TAILCALL
LBB1_4:                                 ## %_ZNSt3__16vectorIP8MaterialNS_9allocatorIS2_EEED2Ev.exit
	popq	%rbp
	retq
	.cfi_endproc

	.globl	__ZNSt3__16vectorIP5ShapeNS_9allocatorIS2_EEED1Ev
	.weak_def_can_be_hidden	__ZNSt3__16vectorIP5ShapeNS_9allocatorIS2_EEED1Ev
	.align	4, 0x90
__ZNSt3__16vectorIP5ShapeNS_9allocatorIS2_EEED1Ev: ## @_ZNSt3__16vectorIP5ShapeNS_9allocatorIS2_EEED1Ev
	.cfi_startproc
## BB#0:
	pushq	%rbp
Ltmp12:
	.cfi_def_cfa_offset 16
Ltmp13:
	.cfi_offset %rbp, -16
	movq	%rsp, %rbp
Ltmp14:
	.cfi_def_cfa_register %rbp
	movq	%rdi, %rax
	movq	(%rax), %rdi
	testq	%rdi, %rdi
	je	LBB2_4
## BB#1:
	movq	8(%rax), %rcx
	cmpq	%rdi, %rcx
	je	LBB2_3
## BB#2:                                ## %.lr.ph.i.i.i.i
	leaq	-8(%rcx), %rdx
	subq	%rdi, %rdx
	notq	%rdx
	andq	$-8, %rdx
	addq	%rcx, %rdx
	movq	%rdx, 8(%rax)
LBB2_3:                                 ## %_ZNSt3__113__vector_baseIP5ShapeNS_9allocatorIS2_EEE5clearEv.exit.i.i
	popq	%rbp
	jmp	__ZdlPv                 ## TAILCALL
LBB2_4:                                 ## %_ZNSt3__16vectorIP5ShapeNS_9allocatorIS2_EEED2Ev.exit
	popq	%rbp
	retq
	.cfi_endproc

	.globl	__ZNSt3__16vectorIP11LightSourceNS_9allocatorIS2_EEED1Ev
	.weak_def_can_be_hidden	__ZNSt3__16vectorIP11LightSourceNS_9allocatorIS2_EEED1Ev
	.align	4, 0x90
__ZNSt3__16vectorIP11LightSourceNS_9allocatorIS2_EEED1Ev: ## @_ZNSt3__16vectorIP11LightSourceNS_9allocatorIS2_EEED1Ev
	.cfi_startproc
## BB#0:
	pushq	%rbp
Ltmp17:
	.cfi_def_cfa_offset 16
Ltmp18:
	.cfi_offset %rbp, -16
	movq	%rsp, %rbp
Ltmp19:
	.cfi_def_cfa_register %rbp
	movq	%rdi, %rax
	movq	(%rax), %rdi
	testq	%rdi, %rdi
	je	LBB3_4
## BB#1:
	movq	8(%rax), %rcx
	cmpq	%rdi, %rcx
	je	LBB3_3
## BB#2:                                ## %.lr.ph.i.i.i.i
	leaq	-8(%rcx), %rdx
	subq	%rdi, %rdx
	notq	%rdx
	andq	$-8, %rdx
	addq	%rcx, %rdx
	movq	%rdx, 8(%rax)
LBB3_3:                                 ## %_ZNSt3__113__vector_baseIP11LightSourceNS_9allocatorIS2_EEE5clearEv.exit.i.i
	popq	%rbp
	jmp	__ZdlPv                 ## TAILCALL
LBB3_4:                                 ## %_ZNSt3__16vectorIP11LightSourceNS_9allocatorIS2_EEED2Ev.exit
	popq	%rbp
	retq
	.cfi_endproc

	.section	__TEXT,__literal8,8byte_literals
	.align	3
LCPI4_0:
	.quad	4607182418800017408     ## double 1
	.section	__TEXT,__text,regular,pure_instructions
	.globl	__Z5clampd
	.align	4, 0x90
__Z5clampd:                             ## @_Z5clampd
	.cfi_startproc
## BB#0:
	pushq	%rbp
Ltmp22:
	.cfi_def_cfa_offset 16
Ltmp23:
	.cfi_offset %rbp, -16
	movq	%rsp, %rbp
Ltmp24:
	.cfi_def_cfa_register %rbp
	movaps	%xmm0, %xmm1
	xorps	%xmm0, %xmm0
	ucomisd	%xmm1, %xmm0
	ja	LBB4_2
## BB#1:
	movsd	LCPI4_0(%rip), %xmm0
	minsd	%xmm1, %xmm0
LBB4_2:
	popq	%rbp
	retq
	.cfi_endproc

	.section	__TEXT,__literal8,8byte_literals
	.align	3
LCPI5_0:
	.quad	4607182418800017408     ## double 1
	.section	__TEXT,__text,regular,pure_instructions
	.globl	__Z5clampRN5Eigen6MatrixIdLi4ELi1ELi0ELi4ELi1EEE
	.align	4, 0x90
__Z5clampRN5Eigen6MatrixIdLi4ELi1ELi0ELi4ELi1EEE: ## @_Z5clampRN5Eigen6MatrixIdLi4ELi1ELi0ELi4ELi1EEE
	.cfi_startproc
## BB#0:
	pushq	%rbp
Ltmp27:
	.cfi_def_cfa_offset 16
Ltmp28:
	.cfi_offset %rbp, -16
	movq	%rsp, %rbp
Ltmp29:
	.cfi_def_cfa_register %rbp
	movsd	(%rdi), %xmm1
	xorps	%xmm0, %xmm0
	ucomisd	%xmm1, %xmm0
	xorps	%xmm2, %xmm2
	ja	LBB5_2
## BB#1:
	movsd	LCPI5_0(%rip), %xmm2
	minsd	%xmm1, %xmm2
LBB5_2:                                 ## %_Z5clampd.exit9
	movsd	%xmm2, (%rdi)
	movsd	8(%rdi), %xmm1
	ucomisd	%xmm1, %xmm0
	ja	LBB5_4
## BB#3:
	movsd	LCPI5_0(%rip), %xmm0
	ucomisd	%xmm0, %xmm1
	jbe	LBB5_5
LBB5_4:                                 ## %_Z5clampd.exit3.thread
	movsd	%xmm0, 8(%rdi)
	movsd	%xmm0, 16(%rdi)
	movaps	%xmm0, %xmm1
LBB5_6:
	movsd	LCPI5_0(%rip), %xmm0
	minsd	%xmm1, %xmm0
LBB5_7:                                 ## %_Z5clampd.exit
	movsd	%xmm0, 24(%rdi)
	popq	%rbp
	retq
LBB5_5:                                 ## %_Z5clampd.exit3
	movsd	%xmm1, 8(%rdi)
	movsd	%xmm1, 16(%rdi)
	xorps	%xmm0, %xmm0
	ucomisd	%xmm1, %xmm0
	ja	LBB5_7
	jmp	LBB5_6
	.cfi_endproc

	.globl	__Z4max3N5Eigen6MatrixIdLi4ELi1ELi0ELi4ELi1EEE
	.align	4, 0x90
__Z4max3N5Eigen6MatrixIdLi4ELi1ELi0ELi4ELi1EEE: ## @_Z4max3N5Eigen6MatrixIdLi4ELi1ELi0ELi4ELi1EEE
	.cfi_startproc
## BB#0:
	pushq	%rbp
Ltmp32:
	.cfi_def_cfa_offset 16
Ltmp33:
	.cfi_offset %rbp, -16
	movq	%rsp, %rbp
Ltmp34:
	.cfi_def_cfa_register %rbp
	movsd	(%rdi), %xmm0
	maxsd	8(%rdi), %xmm0
	maxsd	16(%rdi), %xmm0
	popq	%rbp
	retq
	.cfi_endproc

	.globl	__Z15world_to_screenN5Eigen6MatrixIdLi4ELi1ELi0ELi4ELi1EEE
	.align	4, 0x90
__Z15world_to_screenN5Eigen6MatrixIdLi4ELi1ELi0ELi4ELi1EEE: ## @_Z15world_to_screenN5Eigen6MatrixIdLi4ELi1ELi0ELi4ELi1EEE
	.cfi_startproc
## BB#0:
	pushq	%rbp
Ltmp38:
	.cfi_def_cfa_offset 16
Ltmp39:
	.cfi_offset %rbp, -16
	movq	%rsp, %rbp
Ltmp40:
	.cfi_def_cfa_register %rbp
	pushq	%rbx
	pushq	%rax
Ltmp41:
	.cfi_offset %rbx, -24
	movq	%rdi, %rbx
	leaq	L_.str(%rip), %rdi
	movl	$84, %esi
	xorl	%eax, %eax
	callq	_printf
	testb	$8, %bl
	jne	LBB7_2
## BB#1:                                ## %_ZN5Eigen6MatrixIdLi2ELi1ELi0ELi2ELi1EEC1IiiEERKT_RKT0_.exit
	movq	$0, 8(%rbx)
	movq	$0, (%rbx)
	movq	%rbx, %rax
	addq	$8, %rsp
	popq	%rbx
	popq	%rbp
	retq
LBB7_2:
	leaq	L___func__._ZN5Eigen8internal11plain_arrayIdLi4ELi0ELi16EEC2Ev(%rip), %rax
	leaq	L_.str46(%rip), %rcx
	leaq	L_.str47(%rip), %rbx
	movl	$86, %edx
	movq	%rax, %rdi
	movq	%rcx, %rsi
	movq	%rbx, %rcx
	callq	___assert_rtn
	.cfi_endproc

	.section	__TEXT,__literal8,8byte_literals
	.align	3
LCPI8_0:
	.quad	5183643170566569984     ## double 3.4028234663852886E+38
LCPI8_1:
	.quad	0                       ## double 0
	.section	__TEXT,__text,regular,pure_instructions
	.globl	__Z16GetNearestObject4LineR16IntersectionInfo
	.align	4, 0x90
__Z16GetNearestObject4LineR16IntersectionInfo: ## @_Z16GetNearestObject4LineR16IntersectionInfo
	.cfi_startproc
## BB#0:
	pushq	%rbp
Ltmp45:
	.cfi_def_cfa_offset 16
Ltmp46:
	.cfi_offset %rbp, -16
	movq	%rsp, %rbp
Ltmp47:
	.cfi_def_cfa_register %rbp
	pushq	%r15
	pushq	%r14
	pushq	%r13
	pushq	%r12
	pushq	%rbx
	subq	$248, %rsp
Ltmp48:
	.cfi_offset %rbx, -56
Ltmp49:
	.cfi_offset %r12, -48
Ltmp50:
	.cfi_offset %r13, -40
Ltmp51:
	.cfi_offset %r14, -32
Ltmp52:
	.cfi_offset %r15, -24
	movq	%rsi, %rbx
	movq	%rdi, %r14
	movq	___stack_chk_guard@GOTPCREL(%rip), %rax
	movq	(%rax), %rax
	movq	%rax, -48(%rbp)
	movabsq	$5183643170566569984, %rax ## imm = 0x47EFFFFFE0000000
	movq	%rax, (%rbx)
	movq	_objects(%rip), %r15
	xorl	%r13d, %r13d
	cmpq	_objects+8(%rip), %r15
	je	LBB8_6
## BB#1:                                ## %_ZN5Eigen6MatrixIdLi4ELi1ELi0ELi4ELi1EEC1ERKS1_.exit.i.i.lr.ph
	movsd	LCPI8_0(%rip), %xmm0
	movsd	%xmm0, -280(%rbp)       ## 8-byte Spill
	xorl	%r13d, %r13d
	leaq	-272(%rbp), %r12
	.align	4, 0x90
LBB8_2:                                 ## %_ZN5Eigen6MatrixIdLi4ELi1ELi0ELi4ELi1EEC1ERKS1_.exit.i.i
                                        ## =>This Inner Loop Header: Depth=1
	movq	(%r15), %rsi
	movaps	(%r14), %xmm0
	movaps	%xmm0, -272(%rbp)
	movaps	16(%r14), %xmm0
	movaps	%xmm0, -256(%rbp)
	movaps	32(%r14), %xmm0
	movaps	%xmm0, -240(%rbp)
	movaps	48(%r14), %xmm0
	movaps	%xmm0, -224(%rbp)
	leaq	-208(%rbp), %rdi
	movq	%r12, %rdx
	callq	__ZN6Object19GetIntersectionInfoE4Line
	movsd	-208(%rbp), %xmm0
	xorpd	%xmm1, %xmm1
	ucomisd	%xmm0, %xmm1
	ja	LBB8_5
## BB#3:                                ## %_ZN5Eigen6MatrixIdLi4ELi1ELi0ELi4ELi1EEC1ERKS1_.exit.i.i
                                        ##   in Loop: Header=BB8_2 Depth=1
	movsd	-280(%rbp), %xmm1       ## 8-byte Reload
	ucomisd	%xmm0, %xmm1
	jbe	LBB8_5
## BB#4:                                ## %_ZNK4Line2AtERKd.exit
                                        ##   in Loop: Header=BB8_2 Depth=1
	movsd	%xmm0, (%rbx)
	movaps	-192(%rbp), %xmm1
	movaps	%xmm1, 16(%rbx)
	movaps	-176(%rbp), %xmm1
	movaps	%xmm1, 32(%rbx)
	movaps	-160(%rbp), %xmm1
	movaps	%xmm1, 48(%rbx)
	movaps	-144(%rbp), %xmm1
	movaps	%xmm1, 64(%rbx)
	movaps	-128(%rbp), %xmm1
	movaps	%xmm1, 80(%rbx)
	movaps	-112(%rbp), %xmm1
	movaps	%xmm1, 96(%rbx)
	movaps	-96(%rbp), %xmm1
	movaps	%xmm1, 112(%rbx)
	movaps	-80(%rbp), %xmm1
	movaps	%xmm1, 128(%rbx)
	movl	-64(%rbp), %eax
	movl	%eax, 144(%rbx)
	movq	(%r15), %r13
	pshufd	$68, %xmm0, %xmm1       ## xmm1 = xmm0[0,1,0,1]
	movapd	32(%r14), %xmm2
	mulpd	%xmm1, %xmm2
	addpd	(%r14), %xmm2
	mulpd	48(%r14), %xmm1
	addpd	16(%r14), %xmm1
	movapd	%xmm2, 112(%rbx)
	movapd	%xmm1, 128(%rbx)
	movsd	%xmm0, -280(%rbp)       ## 8-byte Spill
LBB8_5:                                 ##   in Loop: Header=BB8_2 Depth=1
	addq	$8, %r15
	cmpq	_objects+8(%rip), %r15
	jne	LBB8_2
LBB8_6:                                 ## %._crit_edge
	movq	___stack_chk_guard@GOTPCREL(%rip), %rax
	movq	(%rax), %rax
	cmpq	-48(%rbp), %rax
	jne	LBB8_8
## BB#7:                                ## %._crit_edge
	movq	%r13, %rax
	addq	$248, %rsp
	popq	%rbx
	popq	%r12
	popq	%r13
	popq	%r14
	popq	%r15
	popq	%rbp
	retq
LBB8_8:                                 ## %._crit_edge
	callq	___stack_chk_fail
	.cfi_endproc

	.section	__TEXT,__literal8,8byte_literals
	.align	3
LCPI9_0:
	.quad	-4624296097384025293    ## double -0.29999999999999999
LCPI9_1:
	.quad	-4616189618054758400    ## double -1
LCPI9_2:
	.quad	-4721223822366429368    ## double -9.9999999999999995E-8
LCPI9_3:
	.quad	4502148214488346440     ## double 9.9999999999999995E-8
	.section	__TEXT,__const
	.align	4
LCPI9_4:
	.long	0                       ## 0x0
	.long	2147483648              ## 0x80000000
	.long	0                       ## 0x0
	.long	2147483648              ## 0x80000000
LCPI9_5:
	.quad	-4616189618054758400    ## double -1.000000e+00
	.quad	-4616189618054758400    ## double -1.000000e+00
	.section	__TEXT,__textcoal_nt,coalesced,pure_instructions
	.globl	__ZN6Object19GetIntersectionInfoE4Line
	.weak_def_can_be_hidden	__ZN6Object19GetIntersectionInfoE4Line
	.align	4, 0x90
__ZN6Object19GetIntersectionInfoE4Line: ## @_ZN6Object19GetIntersectionInfoE4Line
	.cfi_startproc
## BB#0:
	pushq	%rbp
Ltmp56:
	.cfi_def_cfa_offset 16
Ltmp57:
	.cfi_offset %rbp, -16
	movq	%rsp, %rbp
Ltmp58:
	.cfi_def_cfa_register %rbp
	pushq	%r15
	pushq	%r14
	pushq	%r13
	pushq	%r12
	pushq	%rbx
	subq	$632, %rsp              ## imm = 0x278
Ltmp59:
	.cfi_offset %rbx, -56
Ltmp60:
	.cfi_offset %r12, -48
Ltmp61:
	.cfi_offset %r13, -40
Ltmp62:
	.cfi_offset %r14, -32
Ltmp63:
	.cfi_offset %r15, -24
	movq	%rdx, %rbx
	movq	%rsi, %r15
	movq	%rdi, %r14
	movq	___stack_chk_guard@GOTPCREL(%rip), %r12
	movq	(%r12), %rax
	movq	%rax, -48(%rbp)
	cmpb	$0, 440(%r15)
	je	LBB9_1
## BB#2:
	callq	_drand48
	addsd	LCPI9_0(%rip), %xmm0
	xorps	%xmm1, %xmm1
	maxsd	%xmm0, %xmm1
	shufpd	$0, %xmm1, %xmm1        ## xmm1 = xmm1[0,0]
	movapd	448(%r15), %xmm0
	mulpd	%xmm1, %xmm0
	addpd	(%rbx), %xmm0
	movapd	%xmm0, (%rbx)
	mulpd	464(%r15), %xmm1
	addpd	16(%rbx), %xmm1
	movapd	%xmm1, 16(%rbx)
	movapd	%xmm0, %xmm2
	unpckhpd	%xmm2, %xmm2    ## xmm2 = xmm2[1,1]
	movapd	%xmm1, %xmm11
	unpckhpd	%xmm11, %xmm11  ## xmm11 = xmm11[1,1]
	jmp	LBB9_3
LBB9_1:                                 ## %._ZN5Eigen6MatrixIdLi4ELi1ELi0ELi4ELi1EEC1Ev.exit2_crit_edge
	movsd	(%rbx), %xmm0
	movsd	8(%rbx), %xmm2
	movsd	16(%rbx), %xmm1
	movsd	24(%rbx), %xmm11
LBB9_3:                                 ## %_ZN5Eigen6MatrixIdLi4ELi1ELi0ELi4ELi1EEC1Ev.exit2
	shufpd	$0, %xmm0, %xmm0        ## xmm0 = xmm0[0,0]
	movapd	144(%r15), %xmm6
	movapd	160(%r15), %xmm8
	movapd	176(%r15), %xmm3
	movapd	192(%r15), %xmm9
	movapd	%xmm6, %xmm7
	mulpd	%xmm0, %xmm7
	shufpd	$0, %xmm2, %xmm2        ## xmm2 = xmm2[0,0]
	movapd	%xmm3, %xmm5
	mulpd	%xmm2, %xmm5
	addpd	%xmm7, %xmm5
	movapd	208(%r15), %xmm4
	shufpd	$0, %xmm1, %xmm1        ## xmm1 = xmm1[0,0]
	movapd	%xmm4, %xmm7
	mulpd	%xmm1, %xmm7
	addpd	%xmm5, %xmm7
	movapd	240(%r15), %xmm10
	shufpd	$0, %xmm11, %xmm11      ## xmm11 = xmm11[0,0]
	movapd	%xmm10, %xmm12
	mulpd	%xmm11, %xmm12
	addpd	%xmm7, %xmm12
	mulpd	%xmm8, %xmm0
	mulpd	%xmm9, %xmm2
	addpd	%xmm0, %xmm2
	movapd	224(%r15), %xmm0
	mulpd	%xmm0, %xmm1
	addpd	%xmm2, %xmm1
	movapd	256(%r15), %xmm2
	mulpd	%xmm2, %xmm11
	addpd	%xmm1, %xmm11
	movddup	32(%rbx), %xmm1
	mulpd	%xmm1, %xmm6
	movddup	40(%rbx), %xmm5
	mulpd	%xmm5, %xmm3
	addpd	%xmm6, %xmm3
	movddup	48(%rbx), %xmm6
	mulpd	%xmm6, %xmm4
	addpd	%xmm3, %xmm4
	movddup	56(%rbx), %xmm3
	mulpd	%xmm3, %xmm10
	addpd	%xmm4, %xmm10
	mulpd	%xmm8, %xmm1
	mulpd	%xmm9, %xmm5
	addpd	%xmm1, %xmm5
	mulpd	%xmm0, %xmm6
	addpd	%xmm5, %xmm6
	mulpd	%xmm2, %xmm3
	addpd	%xmm6, %xmm3
	cmpb	$0, 441(%r15)
	je	LBB9_4
## BB#24:                               ## %_ZN5Eigen6MatrixIdLi4ELi1ELi0ELi4ELi1EEC1ERKS1_.exit.i.i25
	movq	(%r15), %rax
	movq	80(%rax), %rsi
	movapd	%xmm12, -272(%rbp)
	movapd	%xmm11, -256(%rbp)
	movapd	%xmm10, -240(%rbp)
	movapd	%xmm3, -224(%rbp)
	leaq	-208(%rbp), %rdi
	leaq	-272(%rbp), %rdx
	callq	__ZN6KDTree16TestIntersectionE4Line
	movddup	-192(%rbp), %xmm2
	movapd	272(%r15), %xmm0
	mulpd	%xmm2, %xmm0
	movddup	-184(%rbp), %xmm3
	movapd	304(%r15), %xmm1
	mulpd	%xmm3, %xmm1
	addpd	%xmm0, %xmm1
	movddup	-176(%rbp), %xmm4
	movapd	336(%r15), %xmm5
	mulpd	%xmm4, %xmm5
	addpd	%xmm1, %xmm5
	movddup	-168(%rbp), %xmm0
	movapd	368(%r15), %xmm1
	mulpd	%xmm0, %xmm1
	addpd	%xmm5, %xmm1
	mulpd	288(%r15), %xmm2
	mulpd	320(%r15), %xmm3
	addpd	%xmm2, %xmm3
	mulpd	352(%r15), %xmm4
	addpd	%xmm3, %xmm4
	mulpd	384(%r15), %xmm0
	addpd	%xmm4, %xmm0
	movapd	%xmm0, -272(%rbp)
	movq	$0, -264(%rbp)
	movapd	%xmm1, %xmm2
	mulpd	%xmm2, %xmm2
	movapd	-272(%rbp), %xmm3
	mulpd	%xmm3, %xmm3
	addpd	%xmm2, %xmm3
	haddpd	%xmm3, %xmm3
	sqrtsd	%xmm3, %xmm2
	shufpd	$0, %xmm2, %xmm2        ## xmm2 = xmm2[0,0]
	divpd	%xmm2, %xmm1
	divpd	%xmm2, %xmm0
	movapd	%xmm1, -192(%rbp)
	movapd	%xmm0, -176(%rbp)
	movsd	-160(%rbp), %xmm2
	ucomisd	LCPI9_1(%rip), %xmm2
	jne	LBB9_26
	jp	LBB9_26
## BB#25:
	movq	8(%r15), %rax
	movaps	16(%rax), %xmm2
	movaps	%xmm2, -160(%rbp)
	movaps	32(%rax), %xmm2
	movaps	%xmm2, -144(%rbp)
LBB9_26:
	movsd	-208(%rbp), %xmm2
	movsd	%xmm2, (%r14)
	leal	16(%r14), %eax
	testb	$8, %al
	jne	LBB9_6
## BB#27:                               ## %_ZN5Eigen6MatrixIdLi4ELi1ELi0ELi4ELi1EEC1ERKS1_.exit.i.i
	movapd	%xmm1, 16(%r14)
	movapd	%xmm0, 32(%r14)
	movsd	%xmm2, (%r14)
	leal	48(%r14), %eax
	testb	$8, %al
	jne	LBB9_6
## BB#28:                               ## %_ZN5Eigen6MatrixIdLi4ELi1ELi0ELi4ELi1EEC1ERKS1_.exit1.i.i
	movaps	-160(%rbp), %xmm0
	movaps	%xmm0, 48(%r14)
	movapd	-144(%rbp), %xmm0
	movapd	%xmm0, 64(%r14)
	movsd	%xmm2, (%r14)
	leal	80(%r14), %eax
	testb	$8, %al
	jne	LBB9_6
## BB#29:                               ## %_ZN5Eigen6MatrixIdLi4ELi1ELi0ELi4ELi1EEC1ERKS1_.exit2.i.i
	movaps	-128(%rbp), %xmm0
	movaps	%xmm0, 80(%r14)
	movapd	-112(%rbp), %xmm0
	movapd	%xmm0, 96(%r14)
	movsd	%xmm2, (%r14)
	leal	112(%r14), %eax
	testb	$8, %al
	jne	LBB9_6
## BB#30:                               ## %_ZN16IntersectionInfoC1EOS_.exit
	movaps	-96(%rbp), %xmm0
	movaps	%xmm0, 112(%r14)
	movapd	-80(%rbp), %xmm0
	movapd	%xmm0, 128(%r14)
	movl	-64(%rbp), %eax
	movl	%eax, 144(%r14)
	jmp	LBB9_31
LBB9_4:                                 ## %_ZN5Eigen6MatrixIdLi4ELi1ELi0ELi4ELi1EEC1ERKS1_.exit.i.i4
	movq	(%r15), %rdi
	movq	(%rdi), %rax
	movq	8(%rax), %rax
	movapd	%xmm12, -336(%rbp)
	movapd	%xmm12, -656(%rbp)      ## 16-byte Spill
	movapd	%xmm11, -320(%rbp)
	movapd	%xmm11, -640(%rbp)      ## 16-byte Spill
	movapd	%xmm10, -304(%rbp)
	movapd	%xmm3, -288(%rbp)
	leaq	-336(%rbp), %rsi
	movapd	%xmm10, -608(%rbp)      ## 16-byte Spill
	movapd	%xmm3, -624(%rbp)       ## 16-byte Spill
	callq	*%rax
	xorpd	%xmm1, %xmm1
	ucomisd	%xmm0, %xmm1
	jbe	LBB9_12
## BB#5:                                ## %_ZN5Eigen6MatrixIdLi4ELi1ELi0ELi4ELi1EEC1ERKdS3_S3_S3_.exit
	xorpd	%xmm0, %xmm0
	movapd	%xmm0, -352(%rbp)
	movapd	%xmm0, -368(%rbp)
	movapd	%xmm0, -400(%rbp)
	movq	$0, -384(%rbp)
	movabsq	$4607182418800017408, %rax ## imm = 0x3FF0000000000000
	movq	%rax, -376(%rbp)
	movapd	LCPI9_5(%rip), %xmm0
	movapd	%xmm0, -432(%rbp)
	movabsq	$-4616189618054758400, %rax ## imm = 0xBFF0000000000000
	movq	%rax, -416(%rbp)
	movq	$0, -408(%rbp)
	movq	%rax, (%r14)
	leal	16(%r14), %eax
	testb	$8, %al
	jne	LBB9_6
## BB#8:                                ## %_ZN5Eigen6MatrixIdLi4ELi1ELi0ELi4ELi1EEC1ERKS1_.exit.i
	movaps	-368(%rbp), %xmm0
	movaps	%xmm0, 16(%r14)
	movapd	-352(%rbp), %xmm0
	movapd	%xmm0, 32(%r14)
	leal	48(%r14), %eax
	testb	$8, %al
	jne	LBB9_6
## BB#9:                                ## %_ZN5Eigen6MatrixIdLi4ELi1ELi0ELi4ELi1EEC1ERKS1_.exit1.i
	movaps	-432(%rbp), %xmm0
	movaps	%xmm0, 48(%r14)
	movapd	-416(%rbp), %xmm0
	movapd	%xmm0, 64(%r14)
	leal	80(%r14), %eax
	testb	$8, %al
	jne	LBB9_6
## BB#10:                               ## %_ZN5Eigen6MatrixIdLi4ELi1ELi0ELi4ELi1EEC1ERKS1_.exit2.i
	movaps	-400(%rbp), %xmm0
	movaps	%xmm0, 80(%r14)
	movapd	-384(%rbp), %xmm0
	movapd	%xmm0, 96(%r14)
	leal	112(%r14), %eax
	testb	$8, %al
	jne	LBB9_6
## BB#11:                               ## %_ZN16IntersectionInfoC2EdN5Eigen6MatrixIdLi4ELi1ELi0ELi4ELi1EEES2_iS2_.exit
	movl	$0, 144(%r14)
	jmp	LBB9_31
LBB9_12:                                ## %_ZN5Eigen6MatrixIdLi4ELi1ELi0ELi4ELi1EEC1ERKS1_.exit
	movq	(%r15), %rdi
	movq	(%rdi), %rax
	movq	16(%rax), %rax
	movaps	-656(%rbp), %xmm1       ## 16-byte Reload
	movaps	%xmm1, -464(%rbp)
	movaps	-640(%rbp), %xmm1       ## 16-byte Reload
	movaps	%xmm1, -448(%rbp)
	leaq	-464(%rbp), %rsi
	movapd	%xmm0, -672(%rbp)       ## 16-byte Spill
	callq	*%rax
	movb	%al, %bl
	testb	%bl, %bl
	movl	$-1, %eax
	movl	$1, %r13d
	cmovnel	%eax, %r13d
	pshufd	$68, -672(%rbp), %xmm0  ## 16-byte Folded Reload
                                        ## xmm0 = mem[0,1,0,1]
	movapd	-608(%rbp), %xmm2       ## 16-byte Reload
	mulpd	%xmm0, %xmm2
	movapd	-656(%rbp), %xmm3       ## 16-byte Reload
	addpd	%xmm3, %xmm2
	movapd	%xmm2, -608(%rbp)       ## 16-byte Spill
	movapd	-624(%rbp), %xmm1       ## 16-byte Reload
	mulpd	%xmm0, %xmm1
	movapd	-640(%rbp), %xmm0       ## 16-byte Reload
	addpd	%xmm0, %xmm1
	movapd	%xmm1, -624(%rbp)       ## 16-byte Spill
	movq	(%r15), %rsi
	movq	(%rsi), %rax
	movq	(%rax), %rax
	movapd	%xmm3, -528(%rbp)
	movapd	%xmm0, -512(%rbp)
	movapd	%xmm2, -560(%rbp)
	movapd	%xmm1, -544(%rbp)
	leaq	-496(%rbp), %rdi
	leaq	-528(%rbp), %rdx
	leaq	-560(%rbp), %rcx
	callq	*%rax
	movddup	-496(%rbp), %xmm4
	movddup	-488(%rbp), %xmm3
	movddup	-480(%rbp), %xmm2
	movddup	-472(%rbp), %xmm0
	movapd	288(%r15), %xmm1
	mulpd	%xmm4, %xmm1
	movapd	320(%r15), %xmm5
	mulpd	%xmm3, %xmm5
	addpd	%xmm1, %xmm5
	movapd	352(%r15), %xmm6
	mulpd	%xmm2, %xmm6
	addpd	%xmm5, %xmm6
	movapd	384(%r15), %xmm1
	mulpd	%xmm0, %xmm1
	addpd	%xmm6, %xmm1
	movapd	%xmm1, %xmm5
	unpckhpd	%xmm5, %xmm5    ## xmm5 = xmm5[1,1]
	movsd	LCPI9_2(%rip), %xmm6
	ucomisd	%xmm5, %xmm6
	ja	LBB9_14
## BB#13:                               ## %_ZN5Eigen6MatrixIdLi4ELi1ELi0ELi4ELi1EEC1ERKS1_.exit
	ucomisd	LCPI9_3(%rip), %xmm5
	ja	LBB9_14
## BB#15:                               ## %_ZN5Eigen6MatrixIdLi4ELi1ELi0ELi4ELi1EEC1ERKS1_.exit10
	mulpd	272(%r15), %xmm4
	mulpd	304(%r15), %xmm3
	addpd	%xmm4, %xmm3
	mulpd	336(%r15), %xmm2
	addpd	%xmm3, %xmm2
	mulpd	368(%r15), %xmm0
	addpd	%xmm2, %xmm0
	movapd	%xmm1, -208(%rbp)
	movq	$0, -200(%rbp)
	movapd	%xmm0, %xmm2
	mulpd	%xmm2, %xmm2
	movapd	-208(%rbp), %xmm3
	mulpd	%xmm3, %xmm3
	addpd	%xmm2, %xmm3
	haddpd	%xmm3, %xmm3
	sqrtsd	%xmm3, %xmm2
	shufpd	$0, %xmm2, %xmm2        ## xmm2 = xmm2[0,0]
	divpd	%xmm2, %xmm0
	divpd	%xmm2, %xmm1
	testb	%bl, %bl
	je	LBB9_17
## BB#16:
	movapd	LCPI9_4(%rip), %xmm2
	xorpd	%xmm2, %xmm0
	xorpd	%xmm2, %xmm1
LBB9_17:                                ## %_ZN5Eigen6MatrixIdLi4ELi1ELi0ELi4ELi1EEC1ERKS1_.exit14
	movapd	-608(%rbp), %xmm4       ## 16-byte Reload
	movapd	-624(%rbp), %xmm5       ## 16-byte Reload
	movapd	-672(%rbp), %xmm6       ## 16-byte Reload
	movabsq	$-4616189618054758400, %rax ## imm = 0xBFF0000000000000
	movq	%rax, -592(%rbp)
	movq	%rax, -584(%rbp)
	movq	%rax, -576(%rbp)
	movq	$0, -568(%rbp)
	movsd	%xmm6, -208(%rbp)
	movapd	%xmm0, -192(%rbp)
	movapd	%xmm1, -176(%rbp)
	movapd	-592(%rbp), %xmm2
	movapd	%xmm2, -160(%rbp)
	movapd	-576(%rbp), %xmm3
	movapd	%xmm3, -144(%rbp)
	movapd	%xmm4, -128(%rbp)
	movapd	%xmm5, -112(%rbp)
	movl	%r13d, -64(%rbp)
	ucomisd	LCPI9_1(%rip), %xmm2
	jne	LBB9_19
	jp	LBB9_19
## BB#18:
	movq	8(%r15), %rax
	movapd	16(%rax), %xmm2
	movapd	%xmm2, -160(%rbp)
	movapd	32(%rax), %xmm3
	movapd	%xmm3, -144(%rbp)
LBB9_19:
	movsd	%xmm6, (%r14)
	leal	16(%r14), %eax
	testb	$8, %al
	jne	LBB9_6
## BB#20:                               ## %_ZN5Eigen6MatrixIdLi4ELi1ELi0ELi4ELi1EEC1ERKS1_.exit.i.i21
	movapd	%xmm0, 16(%r14)
	movapd	%xmm1, 32(%r14)
	movsd	%xmm6, (%r14)
	leal	48(%r14), %eax
	testb	$8, %al
	jne	LBB9_6
## BB#21:                               ## %_ZN5Eigen6MatrixIdLi4ELi1ELi0ELi4ELi1EEC1ERKS1_.exit1.i.i22
	movapd	%xmm2, 48(%r14)
	movapd	%xmm3, 64(%r14)
	movsd	%xmm6, (%r14)
	leal	80(%r14), %eax
	testb	$8, %al
	jne	LBB9_6
## BB#22:                               ## %_ZN5Eigen6MatrixIdLi4ELi1ELi0ELi4ELi1EEC1ERKS1_.exit2.i.i23
	movapd	%xmm4, 80(%r14)
	movapd	%xmm5, 96(%r14)
	movsd	%xmm6, (%r14)
	leal	112(%r14), %eax
	testb	$8, %al
	jne	LBB9_6
## BB#23:                               ## %_ZN16IntersectionInfoC1EOS_.exit24
	movaps	-96(%rbp), %xmm0
	movaps	%xmm0, 112(%r14)
	movapd	-80(%rbp), %xmm0
	movapd	%xmm0, 128(%r14)
	movl	%r13d, 144(%r14)
LBB9_31:
	movq	(%r12), %rax
	cmpq	-48(%rbp), %rax
	jne	LBB9_33
## BB#32:
	movq	%r14, %rax
	addq	$632, %rsp              ## imm = 0x278
	popq	%rbx
	popq	%r12
	popq	%r13
	popq	%r14
	popq	%r15
	popq	%rbp
	retq
LBB9_33:
	callq	___stack_chk_fail
LBB9_14:                                ## %_Z3sgnd.exit.thread
	leaq	L___func__._ZN6Object19GetIntersectionInfoE4Line(%rip), %rax
	leaq	L_.str91(%rip), %rcx
	leaq	L_.str92(%rip), %rbx
	movl	$55, %edx
	jmp	LBB9_7
LBB9_6:
	leaq	L___func__._ZN5Eigen8internal11plain_arrayIdLi4ELi0ELi16EEC2Ev(%rip), %rax
	leaq	L_.str46(%rip), %rcx
	leaq	L_.str47(%rip), %rbx
	movl	$86, %edx
LBB9_7:
	movq	%rax, %rdi
	movq	%rcx, %rsi
	movq	%rbx, %rcx
	callq	___assert_rtn
	.cfi_endproc

	.section	__TEXT,__literal8,8byte_literals
	.align	3
LCPI10_0:
	.quad	4658815484840378368     ## double 3000
	.section	__TEXT,__const
	.align	4
LCPI10_1:
	.quad	4658815484840378368     ## double 3.000000e+03
	.quad	4658815484840378368     ## double 3.000000e+03
	.section	__TEXT,__text,regular,pure_instructions
	.globl	__Z8show_rayN5Eigen6MatrixIdLi4ELi1ELi0ELi4ELi1EEES1_i
	.align	4, 0x90
__Z8show_rayN5Eigen6MatrixIdLi4ELi1ELi0ELi4ELi1EEES1_i: ## @_Z8show_rayN5Eigen6MatrixIdLi4ELi1ELi0ELi4ELi1EEES1_i
	.cfi_startproc
## BB#0:                                ## %_ZN5Eigen6MatrixIdLi4ELi1ELi0ELi4ELi1EEC1ERKS1_.exit
	pushq	%rbp
Ltmp67:
	.cfi_def_cfa_offset 16
Ltmp68:
	.cfi_offset %rbp, -16
	movq	%rsp, %rbp
Ltmp69:
	.cfi_def_cfa_register %rbp
	pushq	%r14
	pushq	%rbx
	subq	$64, %rsp
Ltmp70:
	.cfi_offset %rbx, -32
Ltmp71:
	.cfi_offset %r14, -24
	movslq	%edx, %rax
	imulq	$1431655766, %rax, %rcx ## imm = 0x55555556
	movq	%rcx, %rdx
	shrq	$63, %rdx
	shrq	$32, %rcx
	addl	%edx, %ecx
	leal	(%rcx,%rcx,2), %ecx
	subl	%ecx, %eax
	sete	%cl
	movzbl	%cl, %ecx
	cvtsi2ssl	%ecx, %xmm0
	movss	%xmm0, -68(%rbp)        ## 4-byte Spill
	cmpl	$1, %eax
	sete	%cl
	movzbl	%cl, %ecx
	xorps	%xmm0, %xmm0
	cvtsi2ssl	%ecx, %xmm0
	movss	%xmm0, -72(%rbp)        ## 4-byte Spill
	cmpl	$2, %eax
	sete	%al
	movzbl	%al, %eax
	xorps	%xmm0, %xmm0
	cvtsi2ssl	%eax, %xmm0
	movss	%xmm0, -76(%rbp)        ## 4-byte Spill
	leaq	L_.str(%rip), %r14
	xorl	%ebx, %ebx
	movl	$84, %esi
	xorl	%eax, %eax
	movq	%r14, %rdi
	callq	_printf
	movl	$84, %esi
	xorl	%eax, %eax
	movq	%r14, %rdi
	callq	_printf
	xorpd	%xmm0, %xmm0
	xorpd	%xmm1, %xmm1
	haddpd	%xmm1, %xmm1
	sqrtsd	%xmm1, %xmm1
	ucomisd	LCPI10_0(%rip), %xmm1
	movl	$0, %eax
	jbe	LBB10_2
## BB#1:                                ## %_ZN5Eigen6MatrixIdLi2ELi1ELi0ELi2ELi1EEC1INS_13CwiseBinaryOpINS_8internal20scalar_difference_opIdEEKS1_S7_EEEERKNS_10MatrixBaseIT_EE.exit3
	shufpd	$0, %xmm1, %xmm1        ## xmm1 = xmm1[0,0]
	xorpd	%xmm2, %xmm2
	divpd	%xmm1, %xmm2
	mulpd	LCPI10_1(%rip), %xmm2
	addpd	%xmm0, %xmm2
	cvttsd2si	%xmm2, %ebx
	unpckhpd	%xmm2, %xmm2    ## xmm2 = xmm2[1,1]
	cvttsd2si	%xmm2, %eax
LBB10_2:                                ## %_ZN5Eigen6MatrixIdLi2ELi1ELi0ELi2ELi1EEC1ERKS1_.exit4
	movq	_img(%rip), %rdi
	movl	%ebx, -24(%rbp)
	movl	%eax, -20(%rbp)
	movl	$0, -32(%rbp)
	movl	$0, -28(%rbp)
	movss	-68(%rbp), %xmm0        ## 4-byte Reload
	movss	%xmm0, -48(%rbp)
	movss	-72(%rbp), %xmm1        ## 4-byte Reload
	movss	%xmm1, -44(%rbp)
	movss	-76(%rbp), %xmm2        ## 4-byte Reload
	movss	%xmm2, -40(%rbp)
	movss	%xmm0, -64(%rbp)
	movss	%xmm1, -60(%rbp)
	movss	%xmm2, -56(%rbp)
	leaq	-24(%rbp), %rsi
	leaq	-32(%rbp), %rdx
	leaq	-48(%rbp), %rcx
	leaq	-64(%rbp), %r8
	callq	__ZN2UI5Image18draw_line_gradientEN5Eigen6MatrixIiLi2ELi1ELi0ELi2ELi1EEES3_NS2_IfLi3ELi1ELi0ELi3ELi1EEES4_
	addq	$64, %rsp
	popq	%rbx
	popq	%r14
	popq	%rbp
	retq
	.cfi_endproc

	.section	__TEXT,__const
	.align	4
LCPI11_0:
	.quad	4502148214488346440     ## double 1.000000e-07
	.quad	4502148214488346440     ## double 1.000000e-07
LCPI11_1:
	.quad	4636737291354636288     ## double 1.000000e+02
	.quad	4636737291354636288     ## double 1.000000e+02
	.section	__TEXT,__literal8,8byte_literals
	.align	3
LCPI11_2:
	.quad	5183643170566569984     ## double 3.4028234663852886E+38
LCPI11_3:
	.quad	0                       ## double 0
	.section	__TEXT,__text,regular,pure_instructions
	.globl	__Z16GetLightStrengthP6ObjectRK16IntersectionInfoN5Eigen6MatrixIdLi4ELi1ELi0ELi4ELi1EEE
	.align	4, 0x90
__Z16GetLightStrengthP6ObjectRK16IntersectionInfoN5Eigen6MatrixIdLi4ELi1ELi0ELi4ELi1EEE: ## @_Z16GetLightStrengthP6ObjectRK16IntersectionInfoN5Eigen6MatrixIdLi4ELi1ELi0ELi4ELi1EEE
	.cfi_startproc
## BB#0:                                ## %_ZN5Eigen6MatrixIdLi4ELi1ELi0ELi4ELi1EEC1ERKS1_.exit
	pushq	%rbp
Ltmp75:
	.cfi_def_cfa_offset 16
Ltmp76:
	.cfi_offset %rbp, -16
	movq	%rsp, %rbp
Ltmp77:
	.cfi_def_cfa_register %rbp
	pushq	%r15
	pushq	%r14
	pushq	%r13
	pushq	%r12
	pushq	%rbx
	subq	$600, %rsp              ## imm = 0x258
Ltmp78:
	.cfi_offset %rbx, -56
Ltmp79:
	.cfi_offset %r12, -48
Ltmp80:
	.cfi_offset %r13, -40
Ltmp81:
	.cfi_offset %r14, -32
Ltmp82:
	.cfi_offset %r15, -24
	movq	%rcx, -552(%rbp)        ## 8-byte Spill
	movq	%rsi, -544(%rbp)        ## 8-byte Spill
	movq	%rdi, %r12
	movq	___stack_chk_guard@GOTPCREL(%rip), %rax
	movq	(%rax), %rax
	movq	%rax, -48(%rbp)
	testb	$8, %r12b
	jne	LBB11_16
## BB#1:                                ## %_ZN5Eigen6MatrixIdLi4ELi1ELi0ELi4ELi1EEC1ERKdS3_S3_S3_.exit
	movaps	16(%rdx), %xmm0
	movaps	%xmm0, -576(%rbp)       ## 16-byte Spill
	movaps	32(%rdx), %xmm0
	movaps	%xmm0, -592(%rbp)       ## 16-byte Spill
	movaps	112(%rdx), %xmm0
	movaps	%xmm0, -512(%rbp)       ## 16-byte Spill
	movaps	128(%rdx), %xmm0
	movaps	%xmm0, -528(%rbp)       ## 16-byte Spill
	movq	$0, 24(%r12)
	movq	$0, 16(%r12)
	movq	$0, 8(%r12)
	movq	$0, (%r12)
	movsd	48(%rdx), %xmm0
	xorps	%xmm1, %xmm1
	ucomisd	%xmm1, %xmm0
	jae	LBB11_2
## BB#3:                                ## %_ZN5Eigen6MatrixIdLi4ELi1ELi0ELi4ELi1EEC1ERKS1_.exit2
	movaps	80(%rdx), %xmm0
	movaps	96(%rdx), %xmm1
	movq	-544(%rbp), %rax        ## 8-byte Reload
	movq	8(%rax), %rsi
	movq	(%rsi), %rax
	movq	(%rax), %rax
	movaps	%xmm0, -208(%rbp)
	movaps	%xmm1, -192(%rbp)
	leaq	-304(%rbp), %rbx
	leaq	-208(%rbp), %rdx
	movq	%rbx, %rdi
	callq	*%rax
	leaq	-288(%rbp), %rdx
	jmp	LBB11_4
LBB11_2:
	leaq	48(%rdx), %rbx
	addq	$64, %rdx
LBB11_4:
	movapd	(%rbx), %xmm2
	movapd	%xmm2, -608(%rbp)       ## 16-byte Spill
	movapd	(%rdx), %xmm3
	movapd	%xmm3, -624(%rbp)       ## 16-byte Spill
	movddup	_ambient_strength(%rip), %xmm0
	movapd	%xmm0, %xmm1
	mulpd	%xmm2, %xmm1
	addpd	(%r12), %xmm1
	movapd	%xmm1, (%r12)
	mulpd	%xmm3, %xmm0
	addpd	16(%r12), %xmm0
	movapd	%xmm0, 16(%r12)
	movq	_lightSources(%rip), %r15
	movq	_lightSources+8(%rip), %rax
	movq	%rax, -536(%rbp)        ## 8-byte Spill
	cmpq	%rax, %r15
	je	LBB11_14
## BB#5:                                ## %_ZN5Eigen6MatrixIdLi4ELi1ELi0ELi4ELi1EEC1INS_13CwiseBinaryOpINS_8internal20scalar_difference_opIdEEKS1_S7_EEEERKNS_10MatrixBaseIT_EE.exit.lr.ph
	leaq	-208(%rbp), %r13
	leaq	-272(%rbp), %rbx
	.align	4, 0x90
LBB11_6:                                ## %_ZN5Eigen6MatrixIdLi4ELi1ELi0ELi4ELi1EEC1INS_13CwiseBinaryOpINS_8internal20scalar_difference_opIdEEKS1_S7_EEEERKNS_10MatrixBaseIT_EE.exit
                                        ## =>This Loop Header: Depth=1
                                        ##     Child Loop BB11_8 Depth 2
	movq	(%r15), %rax
	movapd	(%rax), %xmm2
	movapd	16(%rax), %xmm3
	subpd	-512(%rbp), %xmm2       ## 16-byte Folded Reload
	movapd	%xmm2, -480(%rbp)       ## 16-byte Spill
	subpd	-528(%rbp), %xmm3       ## 16-byte Folded Reload
	movapd	%xmm3, -496(%rbp)       ## 16-byte Spill
	movapd	%xmm3, -208(%rbp)
	movq	$0, -200(%rbp)
	movapd	%xmm2, %xmm1
	mulpd	%xmm1, %xmm1
	movapd	%xmm1, -464(%rbp)       ## 16-byte Spill
	movapd	-208(%rbp), %xmm0
	mulpd	%xmm0, %xmm0
	addpd	%xmm1, %xmm0
	haddpd	%xmm0, %xmm0
	sqrtsd	%xmm0, %xmm0
	shufpd	$0, %xmm0, %xmm0        ## xmm0 = xmm0[0,0]
	movapd	%xmm2, %xmm1
	divpd	%xmm0, %xmm1
	movapd	%xmm1, -448(%rbp)       ## 16-byte Spill
	movapd	%xmm3, %xmm1
	divpd	%xmm0, %xmm1
	movapd	%xmm1, -432(%rbp)       ## 16-byte Spill
	movapd	%xmm1, -208(%rbp)
	movq	$0, -200(%rbp)
	movq	_objects(%rip), %r14
	cmpq	_objects+8(%rip), %r14
	movsd	LCPI11_2(%rip), %xmm0
	je	LBB11_11
## BB#7:                                ##   in Loop: Header=BB11_6 Depth=1
	movapd	-448(%rbp), %xmm3       ## 16-byte Reload
	movapd	%xmm3, %xmm2
	movapd	LCPI11_0(%rip), %xmm0
	mulpd	%xmm0, %xmm2
	movapd	LCPI11_1(%rip), %xmm1
	mulpd	%xmm1, %xmm2
	addpd	-512(%rbp), %xmm2       ## 16-byte Folded Reload
	movapd	%xmm2, -368(%rbp)       ## 16-byte Spill
	movapd	-432(%rbp), %xmm2       ## 16-byte Reload
	movapd	%xmm2, %xmm4
	mulpd	%xmm0, %xmm4
	mulpd	%xmm1, %xmm4
	addpd	-528(%rbp), %xmm4       ## 16-byte Folded Reload
	movapd	%xmm4, -384(%rbp)       ## 16-byte Spill
	movapd	%xmm3, %xmm0
	mulpd	%xmm0, %xmm0
	movapd	-208(%rbp), %xmm1
	mulpd	%xmm1, %xmm1
	addpd	%xmm0, %xmm1
	haddpd	%xmm1, %xmm1
	sqrtsd	%xmm1, %xmm0
	shufpd	$0, %xmm0, %xmm0        ## xmm0 = xmm0[0,0]
	divpd	%xmm0, %xmm3
	movapd	%xmm3, -400(%rbp)       ## 16-byte Spill
	divpd	%xmm0, %xmm2
	movapd	%xmm2, -416(%rbp)       ## 16-byte Spill
	movsd	LCPI11_2(%rip), %xmm0
	movapd	%xmm0, %xmm1
	.align	4, 0x90
LBB11_8:                                ## %_ZN5Eigen6MatrixIdLi4ELi1ELi0ELi4ELi1EEC1ERKS1_.exit.i.i.i
                                        ##   Parent Loop BB11_6 Depth=1
                                        ## =>  This Inner Loop Header: Depth=2
	movsd	%xmm1, -352(%rbp)       ## 8-byte Spill
	movq	(%r14), %rsi
	movaps	-368(%rbp), %xmm0       ## 16-byte Reload
	movaps	%xmm0, -272(%rbp)
	movaps	-384(%rbp), %xmm0       ## 16-byte Reload
	movaps	%xmm0, -256(%rbp)
	movaps	-400(%rbp), %xmm0       ## 16-byte Reload
	movaps	%xmm0, -240(%rbp)
	movaps	-416(%rbp), %xmm0       ## 16-byte Reload
	movaps	%xmm0, -224(%rbp)
	movq	%r13, %rdi
	movq	%rbx, %rdx
	callq	__ZN6Object19GetIntersectionInfoE4Line
	movsd	-208(%rbp), %xmm0
	xorpd	%xmm1, %xmm1
	ucomisd	%xmm0, %xmm1
	movsd	-352(%rbp), %xmm1       ## 8-byte Reload
	setbe	%al
	ucomisd	%xmm0, %xmm1
	seta	%cl
	testb	%cl, %al
	jne	LBB11_10
## BB#9:                                ## %_ZN5Eigen6MatrixIdLi4ELi1ELi0ELi4ELi1EEC1ERKS1_.exit.i.i.i
                                        ##   in Loop: Header=BB11_8 Depth=2
	movapd	%xmm1, %xmm0
LBB11_10:                               ## %_ZN5Eigen6MatrixIdLi4ELi1ELi0ELi4ELi1EEC1ERKS1_.exit.i.i.i
                                        ##   in Loop: Header=BB11_8 Depth=2
	addq	$8, %r14
	cmpq	_objects+8(%rip), %r14
	movapd	%xmm0, %xmm1
	jne	LBB11_8
LBB11_11:                               ## %_ZN5Eigen6MatrixIdLi4ELi1ELi0ELi4ELi1EEC1ERKS1_.exit3
                                        ##   in Loop: Header=BB11_6 Depth=1
	movaps	-480(%rbp), %xmm1       ## 16-byte Reload
	movaps	%xmm1, -336(%rbp)
	movaps	-496(%rbp), %xmm1       ## 16-byte Reload
	movaps	%xmm1, -320(%rbp)
	movq	$0, -312(%rbp)
	movapd	-320(%rbp), %xmm1
	mulpd	%xmm1, %xmm1
	movapd	-464(%rbp), %xmm2       ## 16-byte Reload
	addpd	%xmm1, %xmm2
	haddpd	%xmm2, %xmm2
	sqrtsd	%xmm2, %xmm1
	ucomisd	%xmm1, %xmm0
	jbe	LBB11_13
## BB#12:                               ## %_Z4pmulRKN5Eigen6MatrixIdLi4ELi1ELi0ELi4ELi1EEES3_.exit
                                        ##   in Loop: Header=BB11_6 Depth=1
	movq	-544(%rbp), %rax        ## 8-byte Reload
	movq	8(%rax), %rcx
	movq	%rcx, -384(%rbp)        ## 8-byte Spill
	movq	(%r15), %rax
	movupd	48(%rax), %xmm7
	movupd	32(%rax), %xmm4
	mulpd	-624(%rbp), %xmm7       ## 16-byte Folded Reload
	mulpd	-608(%rbp), %xmm4       ## 16-byte Folded Reload
	movapd	-576(%rbp), %xmm3       ## 16-byte Reload
	movapd	%xmm3, %xmm1
	movapd	-448(%rbp), %xmm6       ## 16-byte Reload
	mulpd	%xmm6, %xmm1
	movapd	-592(%rbp), %xmm8       ## 16-byte Reload
	movapd	%xmm8, %xmm0
	movapd	-432(%rbp), %xmm5       ## 16-byte Reload
	mulpd	%xmm5, %xmm0
	addpd	%xmm1, %xmm0
	haddpd	%xmm0, %xmm0
	xorpd	%xmm1, %xmm1
	maxsd	%xmm0, %xmm1
	movddup	112(%rcx), %xmm2
	mulpd	%xmm2, %xmm4
	shufpd	$0, %xmm1, %xmm1        ## xmm1 = xmm1[0,0]
	mulpd	%xmm1, %xmm4
	addpd	(%r12), %xmm4
	movapd	%xmm4, -368(%rbp)       ## 16-byte Spill
	movapd	%xmm4, (%r12)
	mulpd	%xmm2, %xmm7
	mulpd	%xmm1, %xmm7
	addpd	16(%r12), %xmm7
	movapd	%xmm7, -352(%rbp)       ## 16-byte Spill
	movapd	%xmm7, 16(%r12)
	addsd	%xmm0, %xmm0
	shufpd	$0, %xmm0, %xmm0        ## xmm0 = xmm0[0,0]
	movapd	%xmm3, %xmm1
	mulpd	%xmm0, %xmm1
	subpd	%xmm1, %xmm6
	mulpd	%xmm8, %xmm0
	subpd	%xmm0, %xmm5
	movq	%r12, %r14
	movq	(%r15), %r12
	movq	-552(%rbp), %rax        ## 8-byte Reload
	mulpd	(%rax), %xmm6
	mulpd	16(%rax), %xmm5
	addpd	%xmm6, %xmm5
	haddpd	%xmm5, %xmm5
	xorpd	%xmm0, %xmm0
	maxsd	%xmm5, %xmm0
	cvtsi2sdl	_specular_index(%rip), %xmm1
	callq	_pow
	movq	-384(%rbp), %rax        ## 8-byte Reload
	movddup	88(%rax), %xmm1
	movapd	32(%r12), %xmm2
	mulpd	%xmm1, %xmm2
	shufpd	$0, %xmm0, %xmm0        ## xmm0 = xmm0[0,0]
	mulpd	%xmm0, %xmm2
	addpd	-368(%rbp), %xmm2       ## 16-byte Folded Reload
	movapd	%xmm2, (%r14)
	mulpd	48(%r12), %xmm1
	movq	%r14, %r12
	mulpd	%xmm0, %xmm1
	addpd	-352(%rbp), %xmm1       ## 16-byte Folded Reload
	movapd	%xmm1, 16(%r12)
LBB11_13:                               ##   in Loop: Header=BB11_6 Depth=1
	addq	$8, %r15
	cmpq	-536(%rbp), %r15        ## 8-byte Folded Reload
	jne	LBB11_6
LBB11_14:                               ## %._crit_edge
	movq	___stack_chk_guard@GOTPCREL(%rip), %rax
	movq	(%rax), %rax
	cmpq	-48(%rbp), %rax
	jne	LBB11_17
## BB#15:                               ## %._crit_edge
	movq	%r12, %rax
	addq	$600, %rsp              ## imm = 0x258
	popq	%rbx
	popq	%r12
	popq	%r13
	popq	%r14
	popq	%r15
	popq	%rbp
	retq
LBB11_17:                               ## %._crit_edge
	callq	___stack_chk_fail
LBB11_16:
	leaq	L___func__._ZN5Eigen8internal11plain_arrayIdLi4ELi0ELi16EEC2Ev(%rip), %rax
	leaq	L_.str46(%rip), %rcx
	leaq	L_.str47(%rip), %rbx
	movl	$86, %edx
	movq	%rax, %rdi
	movq	%rcx, %rsi
	movq	%rbx, %rcx
	callq	___assert_rtn
	.cfi_endproc

	.section	__TEXT,__literal8,8byte_literals
	.align	3
LCPI12_0:
	.quad	4596373779694328218     ## double 0.20000000000000001
LCPI12_1:
	.quad	4607182418800017408     ## double 1
	.section	__TEXT,__text,regular,pure_instructions
	.globl	__Z12noise_vectorN5Eigen6MatrixIdLi4ELi1ELi0ELi4ELi1EEEd
	.align	4, 0x90
__Z12noise_vectorN5Eigen6MatrixIdLi4ELi1ELi0ELi4ELi1EEEd: ## @_Z12noise_vectorN5Eigen6MatrixIdLi4ELi1ELi0ELi4ELi1EEEd
	.cfi_startproc
## BB#0:                                ## %_ZN5Eigen6MatrixIdLi4ELi1ELi0ELi4ELi1EEC1ERKS1_.exit
	pushq	%rbp
Ltmp86:
	.cfi_def_cfa_offset 16
Ltmp87:
	.cfi_offset %rbp, -16
	movq	%rsp, %rbp
Ltmp88:
	.cfi_def_cfa_register %rbp
	pushq	%r14
	pushq	%rbx
	subq	$144, %rsp
Ltmp89:
	.cfi_offset %rbx, -32
Ltmp90:
	.cfi_offset %r14, -24
	movsd	%xmm0, -104(%rbp)       ## 8-byte Spill
	movq	%rsi, %rbx
	movq	%rdi, %r14
	movapd	(%rbx), %xmm0
	movapd	16(%rbx), %xmm1
	movapd	%xmm1, -32(%rbp)
	movq	$0, -24(%rbp)
	movapd	%xmm0, %xmm2
	mulpd	%xmm2, %xmm2
	movapd	-32(%rbp), %xmm3
	mulpd	%xmm3, %xmm3
	addpd	%xmm2, %xmm3
	haddpd	%xmm3, %xmm3
	sqrtsd	%xmm3, %xmm2
	shufpd	$0, %xmm2, %xmm2        ## xmm2 = xmm2[0,0]
	divpd	%xmm2, %xmm0
	divpd	%xmm2, %xmm1
	movapd	%xmm0, (%rbx)
	movapd	%xmm1, 16(%rbx)
	movsd	LCPI12_0(%rip), %xmm4
	ucomisd	%xmm4, %xmm0
	cmpltsd	%xmm0, %xmm4
	movsd	LCPI12_1(%rip), %xmm3
	andnpd	%xmm3, %xmm4
	xorpd	%xmm1, %xmm1
	ja	LBB12_2
## BB#1:                                ## %_ZN5Eigen6MatrixIdLi4ELi1ELi0ELi4ELi1EEC1ERKS1_.exit
	xorpd	%xmm3, %xmm3
LBB12_2:                                ## %_ZN5Eigen6MatrixIdLi4ELi1ELi0ELi4ELi1EEC1ERKS1_.exit
	movupd	8(%rbx), %xmm8
	movapd	%xmm8, %xmm5
	mulsd	%xmm4, %xmm5
	mulsd	%xmm0, %xmm1
	movapd	%xmm8, %xmm2
	unpckhpd	%xmm2, %xmm2    ## xmm2 = xmm2[1,1]
	movapd	%xmm2, %xmm6
	unpcklpd	%xmm3, %xmm6    ## xmm6 = xmm6[0],xmm3[0]
	movapd	%xmm0, %xmm7
	pslldq	$8, %xmm7
	mulpd	%xmm6, %xmm7
	unpcklpd	%xmm4, %xmm3    ## xmm3 = xmm3[0],xmm4[0]
	mulpd	%xmm8, %xmm3
	subsd	%xmm5, %xmm1
	subpd	%xmm7, %xmm3
	movapd	%xmm3, -64(%rbp)
	movsd	%xmm1, -48(%rbp)
	movq	$0, -40(%rbp)
	movapd	-48(%rbp), %xmm1
	movapd	%xmm1, -32(%rbp)
	movapd	%xmm1, %xmm6
	movq	$0, -24(%rbp)
	movapd	%xmm3, %xmm1
	mulpd	%xmm1, %xmm1
	movapd	-32(%rbp), %xmm4
	mulpd	%xmm4, %xmm4
	addpd	%xmm1, %xmm4
	haddpd	%xmm4, %xmm4
	sqrtsd	%xmm4, %xmm1
	shufpd	$0, %xmm1, %xmm1        ## xmm1 = xmm1[0,0]
	divpd	%xmm1, %xmm3
	movapd	%xmm3, -144(%rbp)       ## 16-byte Spill
	divpd	%xmm1, %xmm6
	movapd	%xmm6, -128(%rbp)       ## 16-byte Spill
	movapd	%xmm3, %xmm1
	unpckhpd	%xmm1, %xmm1    ## xmm1 = xmm1[1,1]
	movapd	%xmm8, %xmm4
	mulsd	%xmm3, %xmm4
	mulsd	%xmm0, %xmm1
	unpcklpd	%xmm6, %xmm2    ## xmm2 = xmm2[0],xmm6[0]
	movapd	%xmm3, %xmm5
	shufpd	$1, %xmm0, %xmm5        ## xmm5 = xmm5[1],xmm0[0]
	mulpd	%xmm2, %xmm5
	movapd	%xmm6, %xmm0
	unpcklpd	%xmm3, %xmm0    ## xmm0 = xmm0[0],xmm3[0]
	mulpd	%xmm8, %xmm0
	subsd	%xmm4, %xmm1
	subpd	%xmm5, %xmm0
	movapd	%xmm0, -160(%rbp)       ## 16-byte Spill
	movapd	%xmm0, -96(%rbp)
	movsd	%xmm1, -80(%rbp)
	movq	$0, -72(%rbp)
	callq	_drand48
	addsd	%xmm0, %xmm0
	mulsd	__ZL2pi(%rip), %xmm0
	callq	___sincos_stret
	movsd	-104(%rbp), %xmm2       ## 8-byte Reload
	mulsd	%xmm2, %xmm0
	mulsd	%xmm2, %xmm1
	shufpd	$0, %xmm0, %xmm0        ## xmm0 = xmm0[0,0]
	movapd	(%rbx), %xmm3
	shufpd	$0, %xmm1, %xmm1        ## xmm1 = xmm1[0,0]
	movapd	-128(%rbp), %xmm2       ## 16-byte Reload
	mulpd	%xmm0, %xmm2
	addpd	16(%rbx), %xmm2
	movapd	%xmm2, %xmm4
	movapd	-80(%rbp), %xmm2
	mulpd	%xmm1, %xmm2
	addpd	%xmm4, %xmm2
	movapd	%xmm2, -32(%rbp)
	movq	$0, -24(%rbp)
	testb	$8, %r14b
	jne	LBB12_4
## BB#3:                                ## %_Z9GetNormalN5Eigen6MatrixIdLi4ELi1ELi0ELi4ELi1EEE.exit1
	movapd	-144(%rbp), %xmm4       ## 16-byte Reload
	mulpd	%xmm0, %xmm4
	addpd	%xmm4, %xmm3
	movapd	-160(%rbp), %xmm4       ## 16-byte Reload
	mulpd	%xmm1, %xmm4
	addpd	%xmm3, %xmm4
	movapd	%xmm4, %xmm0
	mulpd	%xmm0, %xmm0
	movapd	-32(%rbp), %xmm1
	mulpd	%xmm1, %xmm1
	addpd	%xmm0, %xmm1
	haddpd	%xmm1, %xmm1
	sqrtsd	%xmm1, %xmm0
	shufpd	$0, %xmm0, %xmm0        ## xmm0 = xmm0[0,0]
	divpd	%xmm0, %xmm4
	movapd	%xmm4, (%r14)
	divpd	%xmm0, %xmm2
	movapd	%xmm2, 16(%r14)
	movq	%r14, %rax
	addq	$144, %rsp
	popq	%rbx
	popq	%r14
	popq	%rbp
	retq
LBB12_4:
	leaq	L___func__._ZN5Eigen8internal11plain_arrayIdLi4ELi0ELi16EEC2Ev(%rip), %rax
	leaq	L_.str46(%rip), %rcx
	leaq	L_.str47(%rip), %rbx
	movl	$86, %edx
	movq	%rax, %rdi
	movq	%rcx, %rsi
	movq	%rbx, %rcx
	callq	___assert_rtn
	.cfi_endproc

	.section	__TEXT,__literal8,8byte_literals
	.align	3
LCPI13_0:
	.quad	5183643170566569984     ## double 3.4028234663852886E+38
LCPI13_2:
	.quad	4607182418800017408     ## double 1
LCPI13_4:
	.quad	-4721223822366429368    ## double -9.9999999999999995E-8
LCPI13_5:
	.quad	0                       ## double 0
	.section	__TEXT,__const
	.align	4
LCPI13_1:
	.long	0                       ## 0x0
	.long	2147483648              ## 0x80000000
	.long	0                       ## 0x0
	.long	2147483648              ## 0x80000000
LCPI13_3:
	.quad	4532020583610935536     ## double 1.000000e-05
	.quad	4532020583610935536     ## double 1.000000e-05
	.section	__TEXT,__text,regular,pure_instructions
	.globl	__Z8Raytrace4Lineibb
	.align	4, 0x90
__Z8Raytrace4Lineibb:                   ## @_Z8Raytrace4Lineibb
	.cfi_startproc
## BB#0:                                ## %_ZN5Eigen6MatrixIdLi4ELi1ELi0ELi4ELi1EEC1Ev.exit.i.i
	pushq	%rbp
Ltmp94:
	.cfi_def_cfa_offset 16
Ltmp95:
	.cfi_offset %rbp, -16
	movq	%rsp, %rbp
Ltmp96:
	.cfi_def_cfa_register %rbp
	pushq	%r15
	pushq	%r14
	pushq	%r13
	pushq	%r12
	pushq	%rbx
	subq	$1400, %rsp             ## imm = 0x578
Ltmp97:
	.cfi_offset %rbx, -56
Ltmp98:
	.cfi_offset %r12, -48
Ltmp99:
	.cfi_offset %r13, -40
Ltmp100:
	.cfi_offset %r14, -32
Ltmp101:
	.cfi_offset %r15, -24
                                        ## kill: R8D<def> R8D<kill> R8<def>
	movl	%ecx, -1268(%rbp)       ## 4-byte Spill
	movl	%edx, -1236(%rbp)       ## 4-byte Spill
	movq	%rdi, %rbx
	movq	___stack_chk_guard@GOTPCREL(%rip), %r13
	movq	(%r13), %rax
	movq	%rax, -48(%rbp)
	movq	_objects(%rip), %r15
	cmpq	_objects+8(%rip), %r15
	je	LBB13_8
## BB#1:                                ## %_ZN5Eigen6MatrixIdLi4ELi1ELi0ELi4ELi1EEC1ERKS1_.exit.i.i.lr.ph.i
	movq	%r8, -1264(%rbp)        ## 8-byte Spill
	movq	%rbx, -1232(%rbp)       ## 8-byte Spill
	movaps	(%rsi), %xmm0
	movaps	%xmm0, -1120(%rbp)      ## 16-byte Spill
	movaps	16(%rsi), %xmm0
	movaps	%xmm0, -1136(%rbp)      ## 16-byte Spill
	movaps	32(%rsi), %xmm0
	movaps	%xmm0, -1152(%rbp)      ## 16-byte Spill
	movaps	48(%rsi), %xmm0
	movaps	%xmm0, -1168(%rbp)      ## 16-byte Spill
	movq	%rsi, -1224(%rbp)       ## 8-byte Spill
	movsd	LCPI13_0(%rip), %xmm0
	movsd	%xmm0, -1184(%rbp)      ## 8-byte Spill
	xorl	%r12d, %r12d
	leaq	-208(%rbp), %r13
	leaq	-336(%rbp), %rbx
                                        ## implicit-def: R14D
                                        ## implicit-def: XMM7
                                        ## implicit-def: XMM6
                                        ## implicit-def: XMM0
	movaps	%xmm0, -1216(%rbp)      ## 16-byte Spill
                                        ## implicit-def: XMM0
	movdqa	%xmm0, -1200(%rbp)      ## 16-byte Spill
                                        ## implicit-def: XMM2
                                        ## implicit-def: XMM3
	.align	4, 0x90
LBB13_2:                                ## %_ZN5Eigen6MatrixIdLi4ELi1ELi0ELi4ELi1EEC1ERKS1_.exit.i.i.i
                                        ## =>This Inner Loop Header: Depth=1
	movaps	%xmm7, -1104(%rbp)      ## 16-byte Spill
	movaps	%xmm6, -1088(%rbp)      ## 16-byte Spill
	movaps	%xmm3, -1072(%rbp)      ## 16-byte Spill
	movaps	%xmm2, -1056(%rbp)      ## 16-byte Spill
	movq	(%r15), %rsi
	movaps	-1120(%rbp), %xmm0      ## 16-byte Reload
	movaps	%xmm0, -336(%rbp)
	movaps	-1136(%rbp), %xmm0      ## 16-byte Reload
	movaps	%xmm0, -320(%rbp)
	movaps	-1152(%rbp), %xmm0      ## 16-byte Reload
	movaps	%xmm0, -304(%rbp)
	movaps	-1168(%rbp), %xmm0      ## 16-byte Reload
	movaps	%xmm0, -288(%rbp)
	movq	%r13, %rdi
	movq	%rbx, %rdx
	callq	__ZN6Object19GetIntersectionInfoE4Line
	movsd	-208(%rbp), %xmm0
	xorpd	%xmm1, %xmm1
	ucomisd	%xmm0, %xmm1
	ja	LBB13_3
## BB#4:                                ## %_ZN5Eigen6MatrixIdLi4ELi1ELi0ELi4ELi1EEC1ERKS1_.exit.i.i.i
                                        ##   in Loop: Header=BB13_2 Depth=1
	movsd	-1184(%rbp), %xmm1      ## 8-byte Reload
	ucomisd	%xmm0, %xmm1
	movapd	-1056(%rbp), %xmm2      ## 16-byte Reload
	movapd	-1072(%rbp), %xmm3      ## 16-byte Reload
	movapd	-1088(%rbp), %xmm6      ## 16-byte Reload
	movapd	-1104(%rbp), %xmm7      ## 16-byte Reload
	jbe	LBB13_6
## BB#5:                                ## %_ZNK4Line2AtERKd.exit.i
                                        ##   in Loop: Header=BB13_2 Depth=1
	movaps	-192(%rbp), %xmm1
	movaps	%xmm1, -1200(%rbp)      ## 16-byte Spill
	movapd	-176(%rbp), %xmm1
	movapd	%xmm1, -1216(%rbp)      ## 16-byte Spill
	movapd	-160(%rbp), %xmm6
	movapd	-144(%rbp), %xmm7
	movl	-64(%rbp), %r14d
	movq	(%r15), %r12
	pshufd	$68, %xmm0, %xmm2       ## xmm2 = xmm0[0,1,0,1]
	movdqa	%xmm2, %xmm3
	mulpd	-1152(%rbp), %xmm3      ## 16-byte Folded Reload
	addpd	-1120(%rbp), %xmm3      ## 16-byte Folded Reload
	mulpd	-1168(%rbp), %xmm2      ## 16-byte Folded Reload
	addpd	-1136(%rbp), %xmm2      ## 16-byte Folded Reload
	movsd	%xmm0, -1184(%rbp)      ## 8-byte Spill
	jmp	LBB13_6
	.align	4, 0x90
LBB13_3:                                ##   in Loop: Header=BB13_2 Depth=1
	movapd	-1056(%rbp), %xmm2      ## 16-byte Reload
	movapd	-1072(%rbp), %xmm3      ## 16-byte Reload
	movapd	-1088(%rbp), %xmm6      ## 16-byte Reload
	movapd	-1104(%rbp), %xmm7      ## 16-byte Reload
LBB13_6:                                ##   in Loop: Header=BB13_2 Depth=1
	addq	$8, %r15
	cmpq	_objects+8(%rip), %r15
	jne	LBB13_2
## BB#7:                                ## %_ZN5Eigen6MatrixIdLi4ELi1ELi0ELi4ELi1EEC1ERKS1_.exit
	testq	%r12, %r12
	movq	-1232(%rbp), %rbx       ## 8-byte Reload
	movq	___stack_chk_guard@GOTPCREL(%rip), %r13
	movq	-1224(%rbp), %rcx       ## 8-byte Reload
	movq	-1264(%rbp), %rax       ## 8-byte Reload
	je	LBB13_8
## BB#12:
	movq	8(%r12), %rdx
	testb	%al, %al
	je	LBB13_13
## BB#14:
	movq	%rax, %r15
	movq	(%r12), %rdi
	testq	%rdi, %rdi
	je	LBB13_15
## BB#16:
	movapd	%xmm7, -1104(%rbp)      ## 16-byte Spill
	movq	%rdx, -1280(%rbp)       ## 8-byte Spill
	movapd	%xmm6, -1088(%rbp)      ## 16-byte Spill
	movapd	%xmm3, -1072(%rbp)      ## 16-byte Spill
	movapd	%xmm2, -1056(%rbp)      ## 16-byte Spill
	movq	__ZTI5Shape@GOTPCREL(%rip), %rsi
	movq	__ZTI6Sphere@GOTPCREL(%rip), %rdx
	xorl	%ecx, %ecx
	callq	___dynamic_cast
	testq	%rax, %rax
	movq	%r15, %rax
	jne	LBB13_18
## BB#17:
	xorl	%eax, %eax
LBB13_18:
	movapd	-1056(%rbp), %xmm2      ## 16-byte Reload
	movapd	-1072(%rbp), %xmm3      ## 16-byte Reload
	movapd	-1216(%rbp), %xmm0      ## 16-byte Reload
	movapd	-1088(%rbp), %xmm6      ## 16-byte Reload
	movq	-1224(%rbp), %rcx       ## 8-byte Reload
	movq	-1280(%rbp), %rdx       ## 8-byte Reload
	movapd	-1104(%rbp), %xmm7      ## 16-byte Reload
	jmp	LBB13_19
LBB13_8:                                ## %_ZN5Eigen6MatrixIdLi4ELi1ELi0ELi4ELi1EEC1ERKS1_.exit.thread
	testb	$8, %bl
	jne	LBB13_9
## BB#11:                               ## %_ZN5Eigen6MatrixIdLi4ELi1ELi0ELi4ELi1EEC1ERKdS3_S3_S3_.exit
	movq	$0, 24(%rbx)
	movq	$0, 16(%rbx)
	movq	$0, 8(%rbx)
	movq	$0, (%rbx)
	jmp	LBB13_58
LBB13_13:
	movapd	-1216(%rbp), %xmm0      ## 16-byte Reload
	jmp	LBB13_19
LBB13_15:
	xorl	%eax, %eax
	movapd	-1216(%rbp), %xmm0      ## 16-byte Reload
LBB13_19:                               ## %_ZN5Eigen6MatrixIdLi4ELi1ELi0ELi4ELi1EEC1ERKS1_.exit7
	movapd	-1200(%rbp), %xmm1      ## 16-byte Reload
	movapd	%xmm1, -368(%rbp)
	movapd	%xmm0, -352(%rbp)
	movzbl	%al, %eax
	xorl	$1, %eax
	cvtsi2sdl	%eax, %xmm4
	movapd	32(%rcx), %xmm10
	movapd	48(%rcx), %xmm9
	movapd	LCPI13_1(%rip), %xmm8
	movapd	%xmm0, %xmm5
	movapd	%xmm10, %xmm0
	xorpd	%xmm8, %xmm0
	mulpd	%xmm1, %xmm0
	movapd	%xmm9, %xmm1
	xorpd	%xmm8, %xmm1
	mulpd	%xmm5, %xmm1
	addpd	%xmm0, %xmm1
	haddpd	%xmm1, %xmm1
	shufpd	$0, %xmm4, %xmm4        ## xmm4 = xmm4[0,0]
	movapd	48(%rdx), %xmm5
	mulpd	%xmm4, %xmm5
	shufpd	$0, %xmm1, %xmm1        ## xmm1 = xmm1[0,0]
	mulpd	%xmm1, %xmm5
	mulpd	64(%rdx), %xmm4
	mulpd	%xmm1, %xmm4
	movapd	%xmm5, -400(%rbp)
	movapd	%xmm4, -384(%rbp)
	movapd	%xmm6, %xmm0
	unpckhpd	%xmm0, %xmm0    ## xmm0 = xmm0[1,1]
	movapd	%xmm6, %xmm1
	maxsd	%xmm0, %xmm1
	maxsd	%xmm7, %xmm1
	xorpd	%xmm0, %xmm0
	ucomisd	%xmm0, %xmm1
	jne	LBB13_22
	jp	LBB13_22
	jmp	LBB13_20
LBB13_22:
	movapd	%xmm10, -1136(%rbp)     ## 16-byte Spill
	movapd	%xmm9, -1120(%rbp)      ## 16-byte Spill
	movl	-1236(%rbp), %eax       ## 4-byte Reload
	incl	%eax
	cmpl	_maxDepth(%rip), %eax
	jge	LBB13_20
## BB#23:                               ## %_ZN4Line9to_vectorEv.exit
	movapd	%xmm7, -1104(%rbp)      ## 16-byte Spill
	movq	%rdx, -1280(%rbp)       ## 8-byte Spill
	movq	%rcx, %r15
	movapd	%xmm6, -1088(%rbp)      ## 16-byte Spill
	movapd	%xmm5, -1312(%rbp)      ## 16-byte Spill
	movapd	%xmm4, -1296(%rbp)      ## 16-byte Spill
	movapd	%xmm3, -1072(%rbp)      ## 16-byte Spill
	movapd	%xmm2, -1056(%rbp)      ## 16-byte Spill
	movl	%eax, -1236(%rbp)       ## 4-byte Spill
	movq	8(%r12), %rax
	movsd	80(%rax), %xmm0
	mulsd	%xmm1, %xmm0
	movdqa	%xmm0, -1168(%rbp)      ## 16-byte Spill
	movsd	112(%rax), %xmm2
	mulsd	%xmm1, %xmm2
	movsd	104(%rax), %xmm3
	mulsd	%xmm1, %xmm3
	addsd	%xmm0, %xmm2
	movsd	%xmm2, -1264(%rbp)      ## 8-byte Spill
	addsd	%xmm2, %xmm3
	movsd	%xmm3, -1152(%rbp)      ## 8-byte Spill
	movapd	%xmm1, -1184(%rbp)      ## 16-byte Spill
	callq	_drand48
	movsd	-1152(%rbp), %xmm3      ## 8-byte Reload
	ucomisd	%xmm3, %xmm0
	jae	LBB13_24
## BB#26:
	movapd	-1136(%rbp), %xmm0      ## 16-byte Reload
	mulpd	-1200(%rbp), %xmm0      ## 16-byte Folded Reload
	movapd	-1120(%rbp), %xmm1      ## 16-byte Reload
	mulpd	-1216(%rbp), %xmm1      ## 16-byte Folded Reload
	addpd	%xmm0, %xmm1
	haddpd	%xmm1, %xmm1
	addsd	%xmm1, %xmm1
	movaps	%xmm1, -1120(%rbp)      ## 16-byte Spill
	movsd	LCPI13_2(%rip), %xmm0
	movaps	%xmm0, %xmm1
	divsd	-1184(%rbp), %xmm1      ## 16-byte Folded Reload
	shufpd	$0, %xmm1, %xmm1        ## xmm1 = xmm1[0,0]
	movapd	-1088(%rbp), %xmm2      ## 16-byte Reload
	mulpd	%xmm1, %xmm2
	movapd	%xmm2, -1088(%rbp)      ## 16-byte Spill
	mulpd	-1104(%rbp), %xmm1      ## 16-byte Folded Reload
	movapd	%xmm1, -1328(%rbp)      ## 16-byte Spill
	divsd	%xmm3, %xmm0
	movsd	%xmm0, -1104(%rbp)      ## 8-byte Spill
	callq	_drand48
	movsd	-1104(%rbp), %xmm2      ## 8-byte Reload
	movaps	-1168(%rbp), %xmm1      ## 16-byte Reload
	mulsd	%xmm2, %xmm1
	ucomisd	%xmm0, %xmm1
	jae	LBB13_27
## BB#28:
	movapd	-1120(%rbp), %xmm12     ## 16-byte Reload
	movsd	-1264(%rbp), %xmm1      ## 8-byte Reload
	mulsd	%xmm2, %xmm1
	ucomisd	%xmm0, %xmm1
	jae	LBB13_29
## BB#46:
	movapd	-1200(%rbp), %xmm0      ## 16-byte Reload
	movapd	%xmm0, %xmm2
	unpckhpd	%xmm2, %xmm2    ## xmm2 = xmm2[1,1]
	movq	8(%r12), %rax
	movsd	96(%rax), %xmm9
	movsd	104(%rax), %xmm11
	cmpl	$-1, %r14d
	movq	-1232(%rbp), %rbx       ## 8-byte Reload
	movq	___stack_chk_guard@GOTPCREL(%rip), %r13
	je	LBB13_48
## BB#47:
	movl	-1236(%rbp), %edx       ## 4-byte Reload
	movsd	LCPI13_2(%rip), %xmm10
	jmp	LBB13_49
LBB13_20:
	testb	$8, %bl
	jne	LBB13_9
## BB#21:                               ## %_ZN5Eigen6MatrixIdLi4ELi1ELi0ELi4ELi1EEC1ERKS1_.exit11
	movapd	%xmm5, (%rbx)
	movapd	%xmm4, 16(%rbx)
LBB13_58:
	movq	(%r13), %rax
	cmpq	-48(%rbp), %rax
	jne	LBB13_60
## BB#59:
	movq	%rbx, %rax
	addq	$1400, %rsp             ## imm = 0x578
	popq	%rbx
	popq	%r12
	popq	%r13
	popq	%r14
	popq	%r15
	popq	%rbp
	retq
LBB13_60:
	callq	___stack_chk_fail
LBB13_24:
	testb	$8, %bl
	jne	LBB13_9
## BB#25:                               ## %_ZN5Eigen6MatrixIdLi4ELi1ELi0ELi4ELi1EEC1ERKS1_.exit16
	movaps	-1312(%rbp), %xmm0      ## 16-byte Reload
	movaps	%xmm0, (%rbx)
	movapd	-1296(%rbp), %xmm0      ## 16-byte Reload
	movapd	%xmm0, 16(%rbx)
	jmp	LBB13_58
LBB13_27:                               ## %_ZN4Line9to_vectorEv.exit17
	movapd	32(%r15), %xmm0
	movapd	48(%r15), %xmm1
	movapd	LCPI13_3(%rip), %xmm2
	movapd	%xmm0, %xmm3
	mulpd	%xmm2, %xmm3
	movapd	-1072(%rbp), %xmm4      ## 16-byte Reload
	subpd	%xmm3, %xmm4
	movapd	%xmm4, -1072(%rbp)      ## 16-byte Spill
	mulpd	%xmm1, %xmm2
	movapd	-1056(%rbp), %xmm3      ## 16-byte Reload
	subpd	%xmm2, %xmm3
	movapd	%xmm3, -1056(%rbp)      ## 16-byte Spill
	movapd	-1120(%rbp), %xmm2      ## 16-byte Reload
	shufpd	$0, %xmm2, %xmm2        ## xmm2 = xmm2[0,0]
	movapd	-1200(%rbp), %xmm3      ## 16-byte Reload
	mulpd	%xmm2, %xmm3
	subpd	%xmm3, %xmm0
	movapd	%xmm0, -464(%rbp)
	mulpd	-1216(%rbp), %xmm2      ## 16-byte Folded Reload
	subpd	%xmm2, %xmm1
	movapd	%xmm1, -448(%rbp)
	movq	-1280(%rbp), %rax       ## 8-byte Reload
	movsd	120(%rax), %xmm0
	leaq	-432(%rbp), %rdi
	leaq	-464(%rbp), %rsi
	callq	__Z12noise_vectorN5Eigen6MatrixIdLi4ELi1ELi0ELi4ELi1EEEd
	movapd	-432(%rbp), %xmm0
	movapd	-416(%rbp), %xmm1
	movapd	%xmm1, -208(%rbp)
	movq	$0, -200(%rbp)
	movapd	%xmm0, %xmm2
	mulpd	%xmm2, %xmm2
	movapd	-208(%rbp), %xmm3
	mulpd	%xmm3, %xmm3
	addpd	%xmm2, %xmm3
	haddpd	%xmm3, %xmm3
	sqrtsd	%xmm3, %xmm2
	shufpd	$0, %xmm2, %xmm2        ## xmm2 = xmm2[0,0]
	divpd	%xmm2, %xmm0
	divpd	%xmm2, %xmm1
	movaps	-1072(%rbp), %xmm2      ## 16-byte Reload
	movaps	%xmm2, -560(%rbp)
	movaps	-1056(%rbp), %xmm2      ## 16-byte Reload
	movaps	%xmm2, -544(%rbp)
	movapd	%xmm0, -528(%rbp)
	movapd	%xmm1, -512(%rbp)
	movl	-1268(%rbp), %eax       ## 4-byte Reload
	movzbl	%al, %ecx
	leaq	-496(%rbp), %rdi
	leaq	-560(%rbp), %rsi
	xorl	%r8d, %r8d
	movl	-1236(%rbp), %edx       ## 4-byte Reload
	callq	__Z8Raytrace4Lineibb
	movapd	-1328(%rbp), %xmm1      ## 16-byte Reload
	mulpd	-480(%rbp), %xmm1
	movapd	-1088(%rbp), %xmm3      ## 16-byte Reload
	mulpd	-496(%rbp), %xmm3
	movapd	-1168(%rbp), %xmm0      ## 16-byte Reload
	shufpd	$0, %xmm0, %xmm0        ## xmm0 = xmm0[0,0]
	mulpd	%xmm0, %xmm3
	movapd	-1312(%rbp), %xmm2      ## 16-byte Reload
	addpd	%xmm3, %xmm2
	movapd	%xmm2, -400(%rbp)
	mulpd	%xmm1, %xmm0
	movapd	-1296(%rbp), %xmm1      ## 16-byte Reload
	addpd	%xmm0, %xmm1
	jmp	LBB13_55
LBB13_29:                               ## %_ZN4Line9to_vectorEv.exit30
	callq	_drand48
	movapd	LCPI13_3(%rip), %xmm2
	movq	%r15, -1224(%rbp)       ## 8-byte Spill
	movapd	32(%r15), %xmm1
	mulpd	%xmm2, %xmm1
	movapd	%xmm1, -1408(%rbp)      ## 16-byte Spill
	movapd	48(%r15), %xmm1
	mulpd	%xmm2, %xmm1
	movapd	%xmm1, -1424(%rbp)      ## 16-byte Spill
	movaps	-1200(%rbp), %xmm1      ## 16-byte Reload
	movaps	%xmm1, -624(%rbp)
	movaps	-1216(%rbp), %xmm1      ## 16-byte Reload
	movaps	%xmm1, -608(%rbp)
	movsd	LCPI13_2(%rip), %xmm1
	subsd	%xmm0, %xmm1
	sqrtsd	%xmm1, %xmm0
	leaq	-592(%rbp), %rdi
	leaq	-624(%rbp), %rsi
	callq	__Z12noise_vectorN5Eigen6MatrixIdLi4ELi1ELi0ELi4ELi1EEEd
	movaps	-592(%rbp), %xmm0
	movaps	%xmm0, -1376(%rbp)      ## 16-byte Spill
	movaps	-576(%rbp), %xmm0
	movaps	%xmm0, -1392(%rbp)      ## 16-byte Spill
	movaps	%xmm0, -208(%rbp)
	movq	$0, -200(%rbp)
	movapd	-208(%rbp), %xmm0
	movapd	%xmm0, -1440(%rbp)      ## 16-byte Spill
	xorpd	%xmm0, %xmm0
	movapd	%xmm0, -640(%rbp)
	movapd	%xmm0, -656(%rbp)
	movq	_objects(%rip), %r13
	movq	_objects+8(%rip), %rbx
	movq	%rbx, -1352(%rbp)       ## 8-byte Spill
	cmpq	%rbx, %r13
	je	LBB13_45
## BB#30:                               ## %.lr.ph
	movq	__ZTI5Shape@GOTPCREL(%rip), %r12
	leaq	-272(%rbp), %r15
                                        ## implicit-def: XMM0
	movaps	%xmm0, -1184(%rbp)      ## 16-byte Spill
                                        ## implicit-def: XMM0
	movapd	%xmm0, -1264(%rbp)      ## 16-byte Spill
LBB13_31:                               ## =>This Loop Header: Depth=1
                                        ##     Child Loop BB13_37 Depth 2
	movq	(%r13), %r14
	movq	(%r14), %rdi
	testq	%rdi, %rdi
	je	LBB13_44
## BB#32:                               ##   in Loop: Header=BB13_31 Depth=1
	xorl	%ecx, %ecx
	movq	%r12, %rsi
	movq	__ZTI6Sphere@GOTPCREL(%rip), %rdx
	callq	___dynamic_cast
	testq	%rax, %rax
	je	LBB13_44
## BB#33:                               ##   in Loop: Header=BB13_31 Depth=1
	movsd	432(%r14), %xmm0
	mulsd	%xmm0, %xmm0
	movapd	400(%r14), %xmm1
	movapd	416(%r14), %xmm2
	subpd	-1072(%rbp), %xmm1      ## 16-byte Folded Reload
	mulpd	%xmm1, %xmm1
	subpd	-1056(%rbp), %xmm2      ## 16-byte Folded Reload
	mulpd	%xmm2, %xmm2
	addpd	%xmm1, %xmm2
	haddpd	%xmm2, %xmm2
	divsd	%xmm2, %xmm0
	movsd	LCPI13_2(%rip), %xmm2
	movapd	%xmm2, %xmm1
	subsd	%xmm0, %xmm1
	sqrtsd	%xmm1, %xmm0
	ucomisd	%xmm0, %xmm0
	jp	LBB13_44
## BB#34:                               ## %_ZN4Line9to_vectorEv.exit40
                                        ##   in Loop: Header=BB13_31 Depth=1
	movsd	%xmm0, -1104(%rbp)      ## 8-byte Spill
	callq	_drand48
	movsd	LCPI13_2(%rip), %xmm2
	movaps	%xmm2, %xmm1
	subsd	-1104(%rbp), %xmm1      ## 8-byte Folded Reload
	movaps	%xmm1, -1344(%rbp)      ## 16-byte Spill
	mulsd	%xmm1, %xmm0
	movaps	%xmm2, %xmm1
	subsd	%xmm0, %xmm1
	mulsd	%xmm1, %xmm1
	movaps	%xmm2, %xmm0
	subsd	%xmm1, %xmm0
	sqrtsd	%xmm0, %xmm0
	movq	-1224(%rbp), %rax       ## 8-byte Reload
	movapd	32(%rax), %xmm2
	movapd	LCPI13_3(%rip), %xmm1
	mulpd	%xmm1, %xmm2
	movapd	%xmm2, -1104(%rbp)      ## 16-byte Spill
	movapd	48(%rax), %xmm2
	mulpd	%xmm1, %xmm2
	movapd	%xmm2, -1168(%rbp)      ## 16-byte Spill
	movapd	400(%r14), %xmm1
	subpd	-1072(%rbp), %xmm1      ## 16-byte Folded Reload
	movapd	%xmm1, -720(%rbp)
	movapd	416(%r14), %xmm1
	subpd	-1056(%rbp), %xmm1      ## 16-byte Folded Reload
	movapd	%xmm1, -704(%rbp)
	leaq	-688(%rbp), %rdi
	leaq	-720(%rbp), %rsi
	callq	__Z12noise_vectorN5Eigen6MatrixIdLi4ELi1ELi0ELi4ELi1EEEd
	movapd	-688(%rbp), %xmm3
	movapd	-672(%rbp), %xmm2
	movapd	%xmm2, -208(%rbp)
	movq	$0, -200(%rbp)
	movapd	%xmm3, %xmm0
	mulpd	%xmm0, %xmm0
	movapd	-208(%rbp), %xmm1
	mulpd	%xmm1, %xmm1
	addpd	%xmm0, %xmm1
	haddpd	%xmm1, %xmm1
	sqrtsd	%xmm1, %xmm0
	shufpd	$0, %xmm0, %xmm0        ## xmm0 = xmm0[0,0]
	divpd	%xmm0, %xmm3
	movapd	%xmm3, -1136(%rbp)      ## 16-byte Spill
	divpd	%xmm0, %xmm2
	movapd	%xmm2, -1120(%rbp)      ## 16-byte Spill
	movq	_objects(%rip), %rbx
	cmpq	_objects+8(%rip), %rbx
	je	LBB13_35
## BB#36:                               ##   in Loop: Header=BB13_31 Depth=1
	movapd	-1072(%rbp), %xmm0      ## 16-byte Reload
	subpd	-1104(%rbp), %xmm0      ## 16-byte Folded Reload
	movapd	%xmm0, -1152(%rbp)      ## 16-byte Spill
	movapd	-1056(%rbp), %xmm0      ## 16-byte Reload
	subpd	-1168(%rbp), %xmm0      ## 16-byte Folded Reload
	movapd	%xmm0, -1168(%rbp)      ## 16-byte Spill
	movsd	LCPI13_0(%rip), %xmm0
	movsd	%xmm0, -1104(%rbp)      ## 8-byte Spill
	xorl	%r12d, %r12d
	.align	4, 0x90
LBB13_37:                               ## %_ZN5Eigen6MatrixIdLi4ELi1ELi0ELi4ELi1EEC1ERKS1_.exit.i.i.i59
                                        ##   Parent Loop BB13_31 Depth=1
                                        ## =>  This Inner Loop Header: Depth=2
	movq	(%rbx), %rsi
	movaps	-1152(%rbp), %xmm0      ## 16-byte Reload
	movaps	%xmm0, -272(%rbp)
	movaps	-1168(%rbp), %xmm0      ## 16-byte Reload
	movaps	%xmm0, -256(%rbp)
	movaps	-1136(%rbp), %xmm0      ## 16-byte Reload
	movaps	%xmm0, -240(%rbp)
	movaps	-1120(%rbp), %xmm0      ## 16-byte Reload
	movaps	%xmm0, -224(%rbp)
	leaq	-208(%rbp), %rdi
	movq	%r15, %rdx
	callq	__ZN6Object19GetIntersectionInfoE4Line
	movsd	-208(%rbp), %xmm0
	xorpd	%xmm1, %xmm1
	ucomisd	%xmm0, %xmm1
	ja	LBB13_40
## BB#38:                               ## %_ZN5Eigen6MatrixIdLi4ELi1ELi0ELi4ELi1EEC1ERKS1_.exit.i.i.i59
                                        ##   in Loop: Header=BB13_37 Depth=2
	movsd	-1104(%rbp), %xmm1      ## 8-byte Reload
	ucomisd	%xmm0, %xmm1
	jbe	LBB13_40
## BB#39:                               ## %_ZNK4Line2AtERKd.exit.i60
                                        ##   in Loop: Header=BB13_37 Depth=2
	movaps	-192(%rbp), %xmm1
	movaps	%xmm1, -1264(%rbp)      ## 16-byte Spill
	movapd	-176(%rbp), %xmm1
	movapd	%xmm1, -1184(%rbp)      ## 16-byte Spill
	movq	(%rbx), %r12
	movsd	%xmm0, -1104(%rbp)      ## 8-byte Spill
LBB13_40:                               ##   in Loop: Header=BB13_37 Depth=2
	addq	$8, %rbx
	cmpq	_objects+8(%rip), %rbx
	jne	LBB13_37
	jmp	LBB13_41
LBB13_35:                               ##   in Loop: Header=BB13_31 Depth=1
	xorl	%r12d, %r12d
LBB13_41:                               ## %_Z16GetNearestObject4LineR16IntersectionInfo.exit64
                                        ##   in Loop: Header=BB13_31 Depth=1
	cmpq	%r14, %r12
	jne	LBB13_43
## BB#42:                               ##   in Loop: Header=BB13_31 Depth=1
	movapd	-1344(%rbp), %xmm3      ## 16-byte Reload
	shufpd	$0, %xmm3, %xmm3        ## xmm3 = xmm3[0,0]
	movapd	%xmm3, %xmm0
	mulpd	-1200(%rbp), %xmm0      ## 16-byte Folded Reload
	movapd	-1136(%rbp), %xmm5      ## 16-byte Reload
	mulpd	%xmm5, %xmm0
	mulpd	-1216(%rbp), %xmm3      ## 16-byte Folded Reload
	movapd	-1120(%rbp), %xmm4      ## 16-byte Reload
	mulpd	%xmm4, %xmm3
	addpd	%xmm0, %xmm3
	haddpd	%xmm3, %xmm3
	addsd	%xmm3, %xmm3
	movapd	-1264(%rbp), %xmm0      ## 16-byte Reload
	movapd	LCPI13_1(%rip), %xmm1
	movapd	%xmm1, %xmm2
	xorpd	%xmm2, %xmm0
	mulpd	%xmm5, %xmm0
	movapd	-1184(%rbp), %xmm1      ## 16-byte Reload
	xorpd	%xmm2, %xmm1
	mulpd	%xmm4, %xmm1
	addpd	%xmm0, %xmm1
	haddpd	%xmm1, %xmm1
	mulsd	%xmm3, %xmm1
	movq	8(%r14), %rax
	shufpd	$0, %xmm1, %xmm1        ## xmm1 = xmm1[0,0]
	movapd	48(%rax), %xmm0
	mulpd	%xmm1, %xmm0
	addpd	-656(%rbp), %xmm0
	movapd	%xmm0, -656(%rbp)
	mulpd	64(%rax), %xmm1
	addpd	-640(%rbp), %xmm1
	movapd	%xmm1, -640(%rbp)
LBB13_43:                               ## %.critedge
                                        ##   in Loop: Header=BB13_31 Depth=1
	movq	-1352(%rbp), %rbx       ## 8-byte Reload
	movq	__ZTI5Shape@GOTPCREL(%rip), %r12
LBB13_44:                               ## %.critedge
                                        ##   in Loop: Header=BB13_31 Depth=1
	addq	$8, %r13
	cmpq	%rbx, %r13
	jne	LBB13_31
LBB13_45:                               ## %_ZN5Eigen6MatrixIdLi4ELi1ELi0ELi4ELi1EEC1ERKS1_.exit.i.i43
	movapd	-1072(%rbp), %xmm2      ## 16-byte Reload
	subpd	-1408(%rbp), %xmm2      ## 16-byte Folded Reload
	movapd	-1056(%rbp), %xmm1      ## 16-byte Reload
	subpd	-1424(%rbp), %xmm1      ## 16-byte Folded Reload
	movapd	-1376(%rbp), %xmm3      ## 16-byte Reload
	movapd	%xmm3, %xmm0
	mulpd	%xmm0, %xmm0
	movapd	-1440(%rbp), %xmm4      ## 16-byte Reload
	mulpd	%xmm4, %xmm4
	addpd	%xmm0, %xmm4
	haddpd	%xmm4, %xmm4
	sqrtsd	%xmm4, %xmm0
	shufpd	$0, %xmm0, %xmm0        ## xmm0 = xmm0[0,0]
	divpd	%xmm0, %xmm3
	movapd	-1392(%rbp), %xmm4      ## 16-byte Reload
	divpd	%xmm0, %xmm4
	movapd	%xmm2, -816(%rbp)
	movapd	%xmm1, -800(%rbp)
	movapd	%xmm3, -784(%rbp)
	movapd	%xmm4, -768(%rbp)
	movl	-1268(%rbp), %eax       ## 4-byte Reload
	movzbl	%al, %ecx
	leaq	-752(%rbp), %rdi
	leaq	-816(%rbp), %rsi
	movl	$1, %r8d
	movl	-1236(%rbp), %edx       ## 4-byte Reload
	callq	__Z8Raytrace4Lineibb
	movapd	-656(%rbp), %xmm0
	movapd	-640(%rbp), %xmm1
	addpd	-752(%rbp), %xmm0
	addpd	-736(%rbp), %xmm1
	movapd	-1328(%rbp), %xmm3      ## 16-byte Reload
	mulpd	%xmm1, %xmm3
	movapd	-1088(%rbp), %xmm1      ## 16-byte Reload
	mulpd	%xmm0, %xmm1
	movq	-1280(%rbp), %rax       ## 8-byte Reload
	movddup	112(%rax), %xmm0
	mulpd	%xmm0, %xmm1
	movapd	-1312(%rbp), %xmm2      ## 16-byte Reload
	addpd	%xmm1, %xmm2
	movapd	%xmm2, -400(%rbp)
	mulpd	%xmm0, %xmm3
	movapd	-1296(%rbp), %xmm1      ## 16-byte Reload
	addpd	%xmm3, %xmm1
	movapd	%xmm1, -384(%rbp)
	movq	-1232(%rbp), %rbx       ## 8-byte Reload
	movq	___stack_chk_guard@GOTPCREL(%rip), %r13
	jmp	LBB13_56
LBB13_48:
	movapd	%xmm0, %xmm3
	movsd	LCPI13_2(%rip), %xmm10
	movapd	%xmm10, %xmm0
	divsd	%xmm9, %xmm0
	movapd	%xmm0, %xmm9
	movapd	%xmm3, %xmm0
	movl	-1236(%rbp), %edx       ## 4-byte Reload
LBB13_49:                               ## %_ZNK5Eigen10MatrixBaseINS_6MatrixIdLi4ELi1ELi0ELi4ELi1EEEE6cross3IS2_EES2_RKNS0_IT_EE.exit39
	movupd	40(%r15), %xmm3
	movsd	32(%r15), %xmm4
	movapd	%xmm3, %xmm5
	mulsd	%xmm0, %xmm5
	movapd	%xmm0, %xmm1
	movapd	%xmm2, %xmm0
	mulsd	%xmm4, %xmm0
	movapd	%xmm3, %xmm6
	movapd	-1216(%rbp), %xmm7      ## 16-byte Reload
	shufpd	$1, %xmm7, %xmm6        ## xmm6 = xmm6[1],xmm7[0]
	unpcklpd	%xmm4, %xmm2    ## xmm2 = xmm2[0],xmm4[0]
	mulpd	%xmm6, %xmm2
	movapd	%xmm7, %xmm4
	unpcklpd	%xmm1, %xmm4    ## xmm4 = xmm4[0],xmm1[0]
	mulpd	%xmm3, %xmm4
	subsd	%xmm5, %xmm0
	subpd	%xmm2, %xmm4
	movupd	-360(%rbp), %xmm2
	movapd	%xmm4, %xmm3
	unpckhpd	%xmm3, %xmm3    ## xmm3 = xmm3[1,1]
	movapd	%xmm2, %xmm5
	mulsd	%xmm4, %xmm5
	mulsd	%xmm1, %xmm3
	movapd	%xmm2, %xmm6
	unpckhpd	%xmm6, %xmm6    ## xmm6 = xmm6[1,1]
	unpcklpd	%xmm0, %xmm6    ## xmm6 = xmm6[0],xmm0[0]
	unpcklpd	%xmm4, %xmm0    ## xmm0 = xmm0[0],xmm4[0]
	shufpd	$1, %xmm1, %xmm4        ## xmm4 = xmm4[1],xmm1[0]
	movapd	%xmm1, %xmm8
	mulpd	%xmm6, %xmm4
	mulpd	%xmm2, %xmm0
	subsd	%xmm5, %xmm3
	subpd	%xmm4, %xmm0
	movapd	%xmm0, -848(%rbp)
	movsd	%xmm3, -832(%rbp)
	movq	$0, -824(%rbp)
	movapd	-832(%rbp), %xmm5
	movapd	%xmm5, -208(%rbp)
	movq	$0, -200(%rbp)
	movapd	%xmm0, %xmm2
	mulpd	%xmm2, %xmm2
	movapd	-208(%rbp), %xmm3
	mulpd	%xmm3, %xmm3
	addpd	%xmm2, %xmm3
	haddpd	%xmm3, %xmm3
	sqrtsd	%xmm3, %xmm2
	shufpd	$0, %xmm2, %xmm2        ## xmm2 = xmm2[0,0]
	divpd	%xmm2, %xmm0
	divpd	%xmm2, %xmm5
	movapd	32(%r15), %xmm4
	movapd	48(%r15), %xmm3
	movapd	%xmm4, %xmm6
	mulpd	%xmm0, %xmm6
	movapd	%xmm3, %xmm2
	mulpd	%xmm5, %xmm2
	addpd	%xmm6, %xmm2
	haddpd	%xmm2, %xmm2
	divsd	%xmm9, %xmm2
	ucomisd	LCPI13_4(%rip), %xmm2
	jb	LBB13_50
## BB#51:                               ## %_ZN5Eigen6MatrixIdLi4ELi1ELi0ELi4ELi1EEC1Ev.exit
	movaps	%xmm11, -1088(%rbp)     ## 16-byte Spill
	ucomisd	%xmm2, %xmm10
	jae	LBB13_52
## BB#53:                               ## %_ZN5Eigen6MatrixIdLi4ELi1ELi0ELi4ELi1EEC1INS_13CwiseBinaryOpINS_8internal20scalar_difference_opIdEEKS1_KNS_12CwiseUnaryOpINS4_18scalar_multiple_opIdEES7_EEEEEERKNS_10MatrixBaseIT_EE.exit
	shufpd	$0, %xmm12, %xmm12      ## xmm12 = xmm12[0,0]
	mulpd	%xmm12, %xmm8
	subpd	%xmm8, %xmm4
	mulpd	%xmm7, %xmm12
	subpd	%xmm12, %xmm3
	movapd	LCPI13_3(%rip), %xmm0
	movapd	%xmm4, %xmm1
	mulpd	%xmm0, %xmm1
	movapd	-1072(%rbp), %xmm2      ## 16-byte Reload
	addpd	%xmm1, %xmm2
	mulpd	%xmm3, %xmm0
	movapd	-1056(%rbp), %xmm1      ## 16-byte Reload
	addpd	%xmm0, %xmm1
	movapd	%xmm2, -1040(%rbp)
	movapd	%xmm1, -1024(%rbp)
	movapd	%xmm3, -208(%rbp)
	movq	$0, -200(%rbp)
	movapd	%xmm4, %xmm0
	mulpd	%xmm0, %xmm0
	movapd	-208(%rbp), %xmm1
	mulpd	%xmm1, %xmm1
	addpd	%xmm0, %xmm1
	haddpd	%xmm1, %xmm1
	sqrtsd	%xmm1, %xmm0
	shufpd	$0, %xmm0, %xmm0        ## xmm0 = xmm0[0,0]
	divpd	%xmm0, %xmm4
	movapd	%xmm4, -1008(%rbp)
	divpd	%xmm0, %xmm3
	movapd	%xmm3, -992(%rbp)
	movl	-1268(%rbp), %eax       ## 4-byte Reload
	movzbl	%al, %ecx
	leaq	-976(%rbp), %r14
	leaq	-1040(%rbp), %rsi
	xorl	%r8d, %r8d
	movq	%r14, %rdi
	callq	__Z8Raytrace4Lineibb
	leaq	-960(%rbp), %rax
	movapd	-1296(%rbp), %xmm1      ## 16-byte Reload
	movapd	-1312(%rbp), %xmm2      ## 16-byte Reload
	jmp	LBB13_54
LBB13_52:                               ## %_ZN5Eigen6MatrixIdLi4ELi1ELi0ELi4ELi1EEC1INS_13CwiseBinaryOpINS_8internal20scalar_difference_opIdEEKNS_12CwiseUnaryOpINS4_18scalar_multiple_opIdEEKS1_EESC_EEEERKNS_10MatrixBaseIT_EE.exit
	movapd	%xmm2, %xmm1
	mulsd	%xmm1, %xmm1
	subsd	%xmm1, %xmm10
	sqrtsd	%xmm10, %xmm1
	shufpd	$0, %xmm2, %xmm2        ## xmm2 = xmm2[0,0]
	mulpd	%xmm2, %xmm0
	shufpd	$0, %xmm1, %xmm1        ## xmm1 = xmm1[0,0]
	mulpd	%xmm1, %xmm8
	subpd	%xmm8, %xmm0
	mulpd	%xmm5, %xmm2
	mulpd	%xmm7, %xmm1
	subpd	%xmm1, %xmm2
	movapd	%xmm2, -208(%rbp)
	movq	$0, -200(%rbp)
	movapd	%xmm0, %xmm1
	mulpd	%xmm1, %xmm1
	movapd	-208(%rbp), %xmm3
	mulpd	%xmm3, %xmm3
	addpd	%xmm1, %xmm3
	haddpd	%xmm3, %xmm3
	sqrtsd	%xmm3, %xmm1
	shufpd	$0, %xmm1, %xmm1        ## xmm1 = xmm1[0,0]
	divpd	%xmm1, %xmm0
	divpd	%xmm1, %xmm2
	movapd	LCPI13_3(%rip), %xmm1
	movapd	%xmm0, %xmm3
	mulpd	%xmm1, %xmm3
	movapd	-1072(%rbp), %xmm5      ## 16-byte Reload
	addpd	%xmm3, %xmm5
	mulpd	%xmm2, %xmm1
	movapd	-1056(%rbp), %xmm4      ## 16-byte Reload
	addpd	%xmm1, %xmm4
	movapd	%xmm2, -208(%rbp)
	movq	$0, -200(%rbp)
	movapd	%xmm0, %xmm1
	mulpd	%xmm1, %xmm1
	movapd	-208(%rbp), %xmm3
	mulpd	%xmm3, %xmm3
	addpd	%xmm1, %xmm3
	haddpd	%xmm3, %xmm3
	sqrtsd	%xmm3, %xmm1
	shufpd	$0, %xmm1, %xmm1        ## xmm1 = xmm1[0,0]
	divpd	%xmm1, %xmm0
	divpd	%xmm1, %xmm2
	movapd	%xmm5, -944(%rbp)
	movapd	%xmm4, -928(%rbp)
	movapd	%xmm0, -912(%rbp)
	movapd	%xmm2, -896(%rbp)
	movl	-1268(%rbp), %eax       ## 4-byte Reload
	movzbl	%al, %ecx
	leaq	-880(%rbp), %r14
	leaq	-944(%rbp), %rsi
	xorl	%r8d, %r8d
	movq	%r14, %rdi
	callq	__Z8Raytrace4Lineibb
	leaq	-864(%rbp), %rax
	movapd	-400(%rbp), %xmm2
	movapd	-384(%rbp), %xmm1
LBB13_54:
	movapd	-1088(%rbp), %xmm3      ## 16-byte Reload
	shufpd	$0, %xmm3, %xmm3        ## xmm3 = xmm3[0,0]
	movapd	(%r14), %xmm0
	mulpd	%xmm3, %xmm0
	addpd	%xmm0, %xmm2
	mulpd	(%rax), %xmm3
	movapd	%xmm2, -400(%rbp)
	addpd	%xmm3, %xmm1
LBB13_55:
	movapd	%xmm1, -384(%rbp)
LBB13_56:
	testb	$8, %bl
	jne	LBB13_9
## BB#57:                               ## %_ZN5Eigen6MatrixIdLi4ELi1ELi0ELi4ELi1EEC1ERKS1_.exit29
	movapd	%xmm2, (%rbx)
	movapd	%xmm1, 16(%rbx)
	jmp	LBB13_58
LBB13_50:
	leaq	L___func__._Z8Raytrace4Lineibb(%rip), %rax
	leaq	L_.str6(%rip), %rcx
	leaq	L_.str7(%rip), %rbx
	movl	$245, %edx
	jmp	LBB13_10
LBB13_9:
	leaq	L___func__._ZN5Eigen8internal11plain_arrayIdLi4ELi0ELi16EEC2Ev(%rip), %rax
	leaq	L_.str46(%rip), %rcx
	leaq	L_.str47(%rip), %rbx
	movl	$86, %edx
LBB13_10:
	movq	%rax, %rdi
	movq	%rcx, %rsi
	movq	%rbx, %rcx
	callq	___assert_rtn
	.cfi_endproc

	.section	__TEXT,__literal8,8byte_literals
	.align	3
LCPI14_0:
	.quad	4607182418800017408     ## double 1
LCPI14_1:
	.quad	4611686018427387904     ## double 2
LCPI14_2:
	.quad	-4616189618054758400    ## double -1
	.section	__TEXT,__const
	.align	4
LCPI14_3:
	.long	1127219200              ## 0x43300000
	.long	1160773632              ## 0x45300000
	.long	0                       ## 0x0
	.long	0                       ## 0x0
LCPI14_4:
	.quad	4841369599423283200     ## double 4.503600e+15
	.quad	4985484787499139072     ## double 1.934281e+25
	.section	__TEXT,__text,regular,pure_instructions
	.globl	__Z16ColorMultisampleiii
	.align	4, 0x90
__Z16ColorMultisampleiii:               ## @_Z16ColorMultisampleiii
	.cfi_startproc
	.cfi_personality 155, ___gxx_personality_v0
Leh_func_begin14:
	.cfi_lsda 16, Lexception14
## BB#0:
	pushq	%rbp
Ltmp123:
	.cfi_def_cfa_offset 16
Ltmp124:
	.cfi_offset %rbp, -16
	movq	%rsp, %rbp
Ltmp125:
	.cfi_def_cfa_register %rbp
	pushq	%r15
	pushq	%r14
	pushq	%r13
	pushq	%r12
	pushq	%rbx
	subq	$392, %rsp              ## imm = 0x188
Ltmp126:
	.cfi_offset %rbx, -56
Ltmp127:
	.cfi_offset %r12, -48
Ltmp128:
	.cfi_offset %r13, -40
Ltmp129:
	.cfi_offset %r14, -32
Ltmp130:
	.cfi_offset %r15, -24
	movl	%ecx, -396(%rbp)        ## 4-byte Spill
	movq	%rdi, -416(%rbp)        ## 8-byte Spill
	testl	%ecx, %ecx
	jle	LBB14_59
## BB#1:                                ## %.preheader.lr.ph
	xorps	%xmm0, %xmm0
	movaps	%xmm0, -64(%rbp)
	movaps	%xmm0, -80(%rbp)
	movaps	%xmm0, -112(%rbp)
	movq	$0, -96(%rbp)
	xorps	%xmm0, %xmm0
	cvtsi2sdl	%esi, %xmm0
	movsd	%xmm0, -376(%rbp)       ## 8-byte Spill
	xorps	%xmm0, %xmm0
	cvtsi2sdl	%edx, %xmm0
	movsd	%xmm0, -384(%rbp)       ## 8-byte Spill
	xorl	%eax, %eax
	leaq	_camera(%rip), %r12
	leaq	-208(%rbp), %r13
	leaq	-240(%rbp), %rbx
	leaq	-304(%rbp), %r14
LBB14_2:                                ## %_ZN5Eigen6MatrixIdLi4ELi1ELi0ELi4ELi1EEC1ERKdS3_S3_S3_.exit1.lr.ph
                                        ## =>This Loop Header: Depth=1
                                        ##     Child Loop BB14_3 Depth 2
                                        ##       Child Loop BB14_5 Depth 3
	movq	%rax, -408(%rbp)        ## 8-byte Spill
	movl	_sample_times(%rip), %eax
	xorl	%ecx, %ecx
	.align	4, 0x90
LBB14_3:                                ## %_ZN5Eigen6MatrixIdLi4ELi1ELi0ELi4ELi1EEC1ERKdS3_S3_S3_.exit1
                                        ##   Parent Loop BB14_2 Depth=1
                                        ## =>  This Loop Header: Depth=2
                                        ##       Child Loop BB14_5 Depth 3
	movq	%rcx, -392(%rbp)        ## 8-byte Spill
	xorl	%r15d, %r15d
	testl	%eax, %eax
	xorpd	%xmm0, %xmm0
	movapd	%xmm0, -128(%rbp)
	movapd	%xmm0, -144(%rbp)
	jle	LBB14_4
	.align	4, 0x90
LBB14_5:                                ## %.lr.ph35
                                        ##   Parent Loop BB14_2 Depth=1
                                        ##     Parent Loop BB14_3 Depth=2
                                        ## =>    This Inner Loop Header: Depth=3
Ltmp102:
	callq	_drand48
Ltmp103:
## BB#6:                                ##   in Loop: Header=BB14_5 Depth=3
	movsd	LCPI14_0(%rip), %xmm2
	ucomisd	%xmm0, %xmm2
	jbe	LBB14_8
## BB#7:                                ##   in Loop: Header=BB14_5 Depth=3
	sqrtsd	%xmm0, %xmm0
	addsd	LCPI14_2(%rip), %xmm0
	movsd	%xmm0, -352(%rbp)       ## 8-byte Spill
	jmp	LBB14_9
	.align	4, 0x90
LBB14_8:                                ##   in Loop: Header=BB14_5 Depth=3
	movsd	LCPI14_1(%rip), %xmm1
	subsd	%xmm0, %xmm1
	sqrtsd	%xmm1, %xmm0
	subsd	%xmm0, %xmm2
	movsd	%xmm2, -352(%rbp)       ## 8-byte Spill
LBB14_9:                                ##   in Loop: Header=BB14_5 Depth=3
Ltmp104:
	callq	_drand48
Ltmp105:
## BB#10:                               ##   in Loop: Header=BB14_5 Depth=3
	movsd	LCPI14_0(%rip), %xmm2
	ucomisd	%xmm0, %xmm2
	jbe	LBB14_12
## BB#11:                               ##   in Loop: Header=BB14_5 Depth=3
	sqrtsd	%xmm0, %xmm1
	addsd	LCPI14_2(%rip), %xmm1
	jmp	LBB14_13
	.align	4, 0x90
LBB14_12:                               ##   in Loop: Header=BB14_5 Depth=3
	movsd	LCPI14_1(%rip), %xmm1
	subsd	%xmm0, %xmm1
	sqrtsd	%xmm1, %xmm0
	movapd	%xmm2, %xmm1
	subsd	%xmm0, %xmm1
LBB14_13:                               ##   in Loop: Header=BB14_5 Depth=3
	movsd	-352(%rbp), %xmm0       ## 8-byte Reload
	addsd	-376(%rbp), %xmm0       ## 8-byte Folded Reload
	addsd	-384(%rbp), %xmm1       ## 8-byte Folded Reload
Ltmp106:
	movq	%r13, %rdi
	movq	%r12, %rsi
	movl	%r15d, %edx
	callq	__ZN6Camera7RaycastEddi
Ltmp107:
## BB#14:                               ## %_ZN5Eigen6MatrixIdLi4ELi1ELi0ELi4ELi1EEC1ERKS1_.exit.i.i
                                        ##   in Loop: Header=BB14_5 Depth=3
	movaps	-208(%rbp), %xmm0
	movaps	%xmm0, -304(%rbp)
	movaps	-192(%rbp), %xmm0
	movaps	%xmm0, -288(%rbp)
	movaps	-176(%rbp), %xmm0
	movaps	%xmm0, -272(%rbp)
	movapd	-160(%rbp), %xmm0
	movapd	%xmm0, -256(%rbp)
Ltmp108:
	xorl	%edx, %edx
	xorl	%ecx, %ecx
	xorl	%r8d, %r8d
	movq	%rbx, %rdi
	movq	%r14, %rsi
	callq	__Z8Raytrace4Lineibb
Ltmp109:
## BB#15:                               ##   in Loop: Header=BB14_5 Depth=3
	movsd	-240(%rbp), %xmm2
	xorpd	%xmm0, %xmm0
	ucomisd	%xmm2, %xmm0
	xorps	%xmm1, %xmm1
	movsd	LCPI14_0(%rip), %xmm4
	ja	LBB14_17
## BB#16:                               ##   in Loop: Header=BB14_5 Depth=3
	movapd	%xmm4, %xmm1
	minsd	%xmm2, %xmm1
LBB14_17:                               ##   in Loop: Header=BB14_5 Depth=3
	movsd	-232(%rbp), %xmm2
	ucomisd	%xmm2, %xmm0
	ja	LBB14_19
## BB#18:                               ##   in Loop: Header=BB14_5 Depth=3
	movapd	%xmm4, %xmm0
	minsd	%xmm2, %xmm0
LBB14_19:                               ##   in Loop: Header=BB14_5 Depth=3
	movsd	-224(%rbp), %xmm3
	xorps	%xmm2, %xmm2
	ucomisd	%xmm3, %xmm2
	ja	LBB14_21
## BB#20:                               ##   in Loop: Header=BB14_5 Depth=3
	movapd	%xmm4, %xmm2
	minsd	%xmm3, %xmm2
LBB14_21:                               ## %_Z5clampd.exit20
                                        ##   in Loop: Header=BB14_5 Depth=3
	movsd	%xmm1, -336(%rbp)
	movsd	%xmm0, -328(%rbp)
	movsd	%xmm2, -320(%rbp)
	movq	$0, -312(%rbp)
	movapd	-336(%rbp), %xmm0
	movapd	%xmm0, -240(%rbp)
	movapd	-320(%rbp), %xmm2
	movapd	%xmm2, -224(%rbp)
	movapd	-80(%rbp), %xmm1
	addpd	%xmm0, %xmm1
	movapd	%xmm1, -80(%rbp)
	movapd	-64(%rbp), %xmm1
	addpd	%xmm2, %xmm1
	movapd	%xmm1, -64(%rbp)
	movapd	-144(%rbp), %xmm5
	addpd	%xmm0, %xmm5
	movapd	%xmm5, -144(%rbp)
	addpd	-128(%rbp), %xmm2
	movapd	%xmm2, -368(%rbp)       ## 16-byte Spill
	movapd	%xmm2, -128(%rbp)
	cmpl	$0, _show_variance(%rip)
	je	LBB14_36
## BB#22:                               ##   in Loop: Header=BB14_5 Depth=3
	movapd	%xmm5, -352(%rbp)       ## 16-byte Spill
	movq	-104(%rbp), %rax
	cmpq	-96(%rbp), %rax
	je	LBB14_35
## BB#23:                               ##   in Loop: Header=BB14_5 Depth=3
	testq	%rax, %rax
	movl	$0, %ecx
	movapd	-352(%rbp), %xmm5       ## 16-byte Reload
	je	LBB14_27
## BB#24:                               ##   in Loop: Header=BB14_5 Depth=3
	testb	$15, %al
	jne	LBB14_25
LBB14_26:                               ## %_ZN5Eigen6MatrixIdLi4ELi1ELi0ELi4ELi1EEC1ERKS1_.exit.i.i.i.i
                                        ##   in Loop: Header=BB14_5 Depth=3
	movapd	%xmm0, (%rax)
	movapd	-224(%rbp), %xmm0
	movapd	%xmm0, 16(%rax)
	movq	-104(%rbp), %rcx
LBB14_27:                               ## %_ZNSt3__116allocator_traitsINS_9allocatorIN5Eigen6MatrixIdLi4ELi1ELi0ELi4ELi1EEEEEE9constructIS4_JRKS4_EEEvRS5_PT_DpOT0_.exit.i
                                        ##   in Loop: Header=BB14_5 Depth=3
	addq	$32, %rcx
	movq	%rcx, -104(%rbp)
	jmp	LBB14_36
	.align	4, 0x90
LBB14_35:                               ##   in Loop: Header=BB14_5 Depth=3
Ltmp112:
	leaq	-112(%rbp), %rdi
	movq	%rbx, %rsi
	callq	__ZNSt3__16vectorIN5Eigen6MatrixIdLi4ELi1ELi0ELi4ELi1EEENS_9allocatorIS3_EEE21__push_back_slow_pathIRKS3_EEvOT_
Ltmp113:
	movapd	-352(%rbp), %xmm5       ## 16-byte Reload
LBB14_36:                               ## %_ZNSt3__16vectorIN5Eigen6MatrixIdLi4ELi1ELi0ELi4ELi1EEENS_9allocatorIS3_EEE9push_backERKS3_.exit
                                        ##   in Loop: Header=BB14_5 Depth=3
	incl	%r15d
	movl	_sample_times(%rip), %eax
	cmpl	%eax, %r15d
	jl	LBB14_5
	jmp	LBB14_37
LBB14_25:                               ##   in Loop: Header=BB14_5 Depth=3
Ltmp110:
	leaq	L___func__._ZN5Eigen8internal11plain_arrayIdLi4ELi0ELi16EEC2Ev(%rip), %rdi
	leaq	L_.str46(%rip), %rsi
	leaq	L_.str47(%rip), %rcx
	movl	$86, %edx
	callq	___assert_rtn
Ltmp111:
	jmp	LBB14_26
	.align	4, 0x90
LBB14_4:                                ## %_ZN5Eigen6MatrixIdLi4ELi1ELi0ELi4ELi1EEC1ERKdS3_S3_S3_.exit1._crit_edge
                                        ##   in Loop: Header=BB14_3 Depth=2
	movapd	-144(%rbp), %xmm5
	movapd	-128(%rbp), %xmm0
	movapd	%xmm0, -368(%rbp)       ## 16-byte Spill
LBB14_37:                               ## %._crit_edge36
                                        ##   in Loop: Header=BB14_3 Depth=2
	xorps	%xmm0, %xmm0
	cvtsi2sdl	%eax, %xmm0
	movsd	LCPI14_0(%rip), %xmm4
	movapd	%xmm4, %xmm1
	divsd	%xmm0, %xmm1
	shufpd	$0, %xmm1, %xmm1        ## xmm1 = xmm1[0,0]
	mulpd	%xmm1, %xmm5
	movapd	%xmm5, -144(%rbp)
	mulpd	-368(%rbp), %xmm1       ## 16-byte Folded Reload
	movapd	%xmm1, -128(%rbp)
	xorpd	%xmm2, %xmm2
	ucomisd	%xmm5, %xmm2
	movapd	%xmm5, %xmm1
	unpckhpd	%xmm1, %xmm1    ## xmm1 = xmm1[1,1]
	xorpd	%xmm3, %xmm3
	ja	LBB14_39
## BB#38:                               ##   in Loop: Header=BB14_3 Depth=2
	movapd	%xmm4, %xmm3
	minsd	%xmm5, %xmm3
LBB14_39:                               ## %_Z5clampd.exit9.i
                                        ##   in Loop: Header=BB14_3 Depth=2
	movsd	%xmm3, -144(%rbp)
	ucomisd	%xmm1, %xmm2
	movq	-392(%rbp), %rcx        ## 8-byte Reload
	ja	LBB14_41
## BB#40:                               ##   in Loop: Header=BB14_3 Depth=2
	ucomisd	%xmm4, %xmm1
	movapd	%xmm4, %xmm2
	jbe	LBB14_42
LBB14_41:                               ## %_Z5clampd.exit3.thread.i
                                        ##   in Loop: Header=BB14_3 Depth=2
	movapd	%xmm2, %xmm1
LBB14_42:                               ## %_Z5clampd.exit3.i.thread
                                        ##   in Loop: Header=BB14_3 Depth=2
	movsd	%xmm1, -136(%rbp)
	movsd	%xmm1, -128(%rbp)
	movapd	%xmm4, %xmm2
	minsd	%xmm1, %xmm2
	movsd	%xmm2, -120(%rbp)
	shufpd	$0, %xmm0, %xmm0        ## xmm0 = xmm0[0,0]
	movapd	-144(%rbp), %xmm1
	mulpd	%xmm0, %xmm1
	addpd	-80(%rbp), %xmm1
	movapd	%xmm1, -80(%rbp)
	mulpd	-128(%rbp), %xmm0
	addpd	-64(%rbp), %xmm0
	movapd	%xmm0, -64(%rbp)
	incl	%ecx
	cmpl	-396(%rbp), %ecx        ## 4-byte Folded Reload
	jl	LBB14_3
## BB#43:                               ## %._crit_edge39
                                        ##   in Loop: Header=BB14_2 Depth=1
	movq	-408(%rbp), %rax        ## 8-byte Reload
	incl	%eax
	cmpl	-396(%rbp), %eax        ## 4-byte Folded Reload
	jl	LBB14_2
## BB#44:                               ## %._crit_edge41
	movl	-396(%rbp), %eax        ## 4-byte Reload
	xorps	%xmm1, %xmm1
	cvtsi2sdl	%eax, %xmm1
	movsd	LCPI14_0(%rip), %xmm0
	divsd	%xmm1, %xmm0
	divsd	%xmm1, %xmm0
	cvtsi2sdl	_sample_times(%rip), %xmm1
	divsd	%xmm1, %xmm0
	shufpd	$0, %xmm0, %xmm0        ## xmm0 = xmm0[0,0]
	movapd	-80(%rbp), %xmm2
	mulpd	%xmm0, %xmm2
	movapd	%xmm2, -80(%rbp)
	mulpd	-64(%rbp), %xmm0
	movapd	%xmm0, -64(%rbp)
	cmpl	$0, _show_variance(%rip)
	je	LBB14_51
## BB#45:
	movq	-112(%rbp), %rdi
	movq	-104(%rbp), %rax
	xorpd	%xmm1, %xmm1
	cmpq	%rax, %rdi
	movq	-416(%rbp), %rbx        ## 8-byte Reload
	je	LBB14_48
## BB#46:
	movq	%rdi, %rcx
	.align	4, 0x90
LBB14_47:                               ## %.lr.ph
                                        ## =>This Inner Loop Header: Depth=1
	movapd	(%rcx), %xmm3
	movapd	16(%rcx), %xmm4
	subpd	%xmm2, %xmm3
	mulpd	%xmm3, %xmm3
	subpd	%xmm0, %xmm4
	mulpd	%xmm4, %xmm4
	addpd	%xmm3, %xmm4
	haddpd	%xmm4, %xmm4
	addsd	%xmm4, %xmm1
	addq	$32, %rcx
	cmpq	%rax, %rcx
	jne	LBB14_47
LBB14_48:                               ## %._crit_edge
	testb	$8, %bl
	jne	LBB14_49
LBB14_50:                               ## %_ZN5Eigen6MatrixIdLi4ELi1ELi0ELi4ELi1EEC1ERKdS3_S3_S3_.exit6
	subq	%rdi, %rax
	sarq	$5, %rax
	movd	%rax, %xmm0
	punpckldq	LCPI14_3(%rip), %xmm0 ## xmm0 = xmm0[0],mem[0],xmm0[1],mem[1]
	subpd	LCPI14_4(%rip), %xmm0
	haddpd	%xmm0, %xmm0
	divsd	%xmm0, %xmm1
	movsd	%xmm1, (%rbx)
	movsd	%xmm1, 8(%rbx)
	movsd	%xmm1, 16(%rbx)
	movq	$0, 24(%rbx)
	jmp	LBB14_54
LBB14_51:
	movq	-416(%rbp), %rbx        ## 8-byte Reload
	testb	$8, %bl
	jne	LBB14_52
LBB14_53:                               ## %_ZN5Eigen6MatrixIdLi4ELi1ELi0ELi4ELi1EEC1ERKS1_.exit
	movapd	%xmm2, (%rbx)
	movapd	%xmm0, 16(%rbx)
	movq	-112(%rbp), %rdi
LBB14_54:
	testq	%rdi, %rdi
	je	LBB14_58
## BB#55:
	movq	-104(%rbp), %rax
	cmpq	%rdi, %rax
	je	LBB14_57
## BB#56:                               ## %.lr.ph.i.i.i.i.i
	leaq	-32(%rax), %rcx
	subq	%rdi, %rcx
	notq	%rcx
	andq	$-32, %rcx
	addq	%rax, %rcx
	movq	%rcx, -104(%rbp)
LBB14_57:                               ## %_ZNSt3__113__vector_baseIN5Eigen6MatrixIdLi4ELi1ELi0ELi4ELi1EEENS_9allocatorIS3_EEE5clearEv.exit.i.i.i
	callq	__ZdlPv
LBB14_58:                               ## %_ZNSt3__16vectorIN5Eigen6MatrixIdLi4ELi1ELi0ELi4ELi1EEENS_9allocatorIS3_EEED1Ev.exit
	movq	%rbx, %rax
	addq	$392, %rsp              ## imm = 0x188
	popq	%rbx
	popq	%r12
	popq	%r13
	popq	%r14
	popq	%r15
	popq	%rbp
	retq
LBB14_28:                               ## %.loopexit
Ltmp114:
LBB14_30:
	movq	%rax, %rbx
	movq	-112(%rbp), %rdi
	testq	%rdi, %rdi
	je	LBB14_34
## BB#31:
	movq	-104(%rbp), %rax
	cmpq	%rdi, %rax
	je	LBB14_33
## BB#32:                               ## %.lr.ph.i.i.i.i.i13
	leaq	-32(%rax), %rcx
	subq	%rdi, %rcx
	notq	%rcx
	andq	$-32, %rcx
	addq	%rax, %rcx
	movq	%rcx, -104(%rbp)
LBB14_33:                               ## %_ZNSt3__113__vector_baseIN5Eigen6MatrixIdLi4ELi1ELi0ELi4ELi1EEENS_9allocatorIS3_EEE5clearEv.exit.i.i.i14
	callq	__ZdlPv
LBB14_34:                               ## %_ZNSt3__16vectorIN5Eigen6MatrixIdLi4ELi1ELi0ELi4ELi1EEENS_9allocatorIS3_EEED1Ev.exit15
	movq	%rbx, %rdi
	callq	__Unwind_Resume
LBB14_59:
	leaq	L___func__._Z16ColorMultisampleiii(%rip), %rax
	leaq	L_.str6(%rip), %rcx
	leaq	L_.str8(%rip), %rbx
	movl	$265, %edx              ## imm = 0x109
	movq	%rax, %rdi
	movq	%rcx, %rsi
	movq	%rbx, %rcx
	callq	___assert_rtn
LBB14_49:
Ltmp115:
	leaq	L___func__._ZN5Eigen8internal11plain_arrayIdLi4ELi0ELi16EEC2Ev(%rip), %rax
	leaq	L_.str46(%rip), %rcx
	leaq	L_.str47(%rip), %rbx
	movl	$86, %edx
	movq	%rax, %rdi
	movq	%rcx, %rsi
	movq	%rbx, %rcx
	callq	___assert_rtn
Ltmp116:
	jmp	LBB14_50
LBB14_52:
Ltmp117:
	leaq	L___func__._ZN5Eigen8internal11plain_arrayIdLi4ELi0ELi16EEC2Ev(%rip), %rax
	leaq	L_.str46(%rip), %rcx
	leaq	L_.str47(%rip), %rbx
	movl	$86, %edx
	movq	%rax, %rdi
	movq	%rcx, %rsi
	movq	%rbx, %rcx
	callq	___assert_rtn
Ltmp118:
	jmp	LBB14_53
LBB14_29:                               ## %.nonloopexit
Ltmp119:
	jmp	LBB14_30
	.cfi_endproc
Leh_func_end14:
	.section	__TEXT,__gcc_except_tab
	.align	2
GCC_except_table14:
Lexception14:
	.byte	255                     ## @LPStart Encoding = omit
	.byte	155                     ## @TType Encoding = indirect pcrel sdata4
	.asciz	"\266\200\200"          ## @TType base offset
	.byte	3                       ## Call site Encoding = udata4
	.byte	52                      ## Call site table length
Lset0 = Ltmp102-Leh_func_begin14        ## >> Call Site 1 <<
	.long	Lset0
Lset1 = Ltmp113-Ltmp102                 ##   Call between Ltmp102 and Ltmp113
	.long	Lset1
Lset2 = Ltmp114-Leh_func_begin14        ##     jumps to Ltmp114
	.long	Lset2
	.byte	0                       ##   On action: cleanup
Lset3 = Ltmp110-Leh_func_begin14        ## >> Call Site 2 <<
	.long	Lset3
Lset4 = Ltmp111-Ltmp110                 ##   Call between Ltmp110 and Ltmp111
	.long	Lset4
Lset5 = Ltmp119-Leh_func_begin14        ##     jumps to Ltmp119
	.long	Lset5
	.byte	0                       ##   On action: cleanup
Lset6 = Ltmp111-Leh_func_begin14        ## >> Call Site 3 <<
	.long	Lset6
Lset7 = Ltmp115-Ltmp111                 ##   Call between Ltmp111 and Ltmp115
	.long	Lset7
	.long	0                       ##     has no landing pad
	.byte	0                       ##   On action: cleanup
Lset8 = Ltmp115-Leh_func_begin14        ## >> Call Site 4 <<
	.long	Lset8
Lset9 = Ltmp118-Ltmp115                 ##   Call between Ltmp115 and Ltmp118
	.long	Lset9
Lset10 = Ltmp119-Leh_func_begin14       ##     jumps to Ltmp119
	.long	Lset10
	.byte	0                       ##   On action: cleanup
	.align	2

	.section	__TEXT,__literal4,4byte_literals
	.align	2
LCPI15_0:
	.long	1056964608              ## float 0.5
	.section	__TEXT,__literal8,8byte_literals
	.align	3
LCPI15_1:
	.quad	4746794007244308480     ## double 2147483647
LCPI15_2:
	.quad	-4616189618054758400    ## double -1
LCPI15_3:
	.quad	4607182418800017408     ## double 1
	.section	__TEXT,__textcoal_nt,coalesced,pure_instructions
	.globl	__ZN6Camera7RaycastEddi
	.weak_def_can_be_hidden	__ZN6Camera7RaycastEddi
	.align	4, 0x90
__ZN6Camera7RaycastEddi:                ## @_ZN6Camera7RaycastEddi
	.cfi_startproc
## BB#0:                                ## %_ZN5Eigen6MatrixIdLi2ELi1ELi0ELi2ELi1EEC1IddEERKT_RKT0_.exit
	pushq	%rbp
Ltmp134:
	.cfi_def_cfa_offset 16
Ltmp135:
	.cfi_offset %rbp, -16
	movq	%rsp, %rbp
Ltmp136:
	.cfi_def_cfa_register %rbp
	pushq	%r15
	pushq	%r14
	pushq	%rbx
	subq	$152, %rsp
Ltmp137:
	.cfi_offset %rbx, -40
Ltmp138:
	.cfi_offset %r14, -32
Ltmp139:
	.cfi_offset %r15, -24
	movq	%rsi, %r15
	movq	%rdi, %r14
	movl	_screenWidth(%rip), %eax
	cvtsi2sdl	%eax, %xmm2
	movsd	(%r15), %xmm7
	cvtsi2ssl	_screenHeight(%rip), %xmm3
	cvtsi2ssl	%eax, %xmm4
	movss	LCPI15_0(%rip), %xmm5
	mulss	%xmm5, %xmm3
	mulss	%xmm5, %xmm4
	cvtss2sd	%xmm3, %xmm3
	cvtss2sd	%xmm4, %xmm4
	subsd	%xmm3, %xmm1
	subsd	%xmm4, %xmm0
	divsd	%xmm2, %xmm1
	divsd	%xmm2, %xmm0
	addsd	%xmm1, %xmm1
	addsd	%xmm0, %xmm0
	mulsd	%xmm7, %xmm1
	mulsd	%xmm7, %xmm0
	movsd	%xmm0, -96(%rbp)
	movsd	%xmm1, -88(%rbp)
	movq	$0, -80(%rbp)
	movabsq	$4607182418800017408, %rax ## imm = 0x3FF0000000000000
	movq	%rax, -72(%rbp)
	movdqa	-96(%rbp), %xmm4
	pshufd	$68, %xmm4, %xmm5       ## xmm5 = xmm4[0,1,0,1]
	movapd	144(%r15), %xmm0
	mulpd	%xmm5, %xmm0
	shufpd	$3, %xmm4, %xmm4        ## xmm4 = xmm4[1,1]
	movapd	80(%r15), %xmm6
	mulpd	%xmm4, %xmm6
	addpd	%xmm0, %xmm6
	movddup	-80(%rbp), %xmm0
	movapd	16(%r15), %xmm8
	movapd	112(%r15), %xmm2
	movapd	128(%r15), %xmm3
	movapd	%xmm0, %xmm1
	mulpd	%xmm2, %xmm1
	addpd	%xmm6, %xmm1
	mulpd	160(%r15), %xmm5
	mulpd	96(%r15), %xmm4
	addpd	%xmm5, %xmm4
	mulpd	%xmm3, %xmm0
	addpd	%xmm4, %xmm0
	addpd	%xmm8, %xmm1
	movapd	%xmm1, -96(%rbp)
	movapd	32(%r15), %xmm4
	addpd	%xmm4, %xmm0
	movapd	%xmm0, -80(%rbp)
	shufpd	$0, %xmm7, %xmm7        ## xmm7 = xmm7[0,0]
	mulpd	%xmm7, %xmm2
	movsd	16224(%r15), %xmm5
	unpcklpd	%xmm5, %xmm5    ## xmm5 = xmm5[0,0]
	mulpd	%xmm5, %xmm2
	addpd	%xmm8, %xmm2
	movapd	%xmm2, -144(%rbp)       ## 16-byte Spill
	mulpd	%xmm3, %xmm7
	mulpd	%xmm5, %xmm7
	addpd	%xmm4, %xmm7
	movapd	%xmm7, -112(%rbp)       ## 16-byte Spill
	movapd	%xmm2, %xmm6
	subpd	%xmm1, %xmm6
	movapd	%xmm7, %xmm2
	subpd	%xmm0, %xmm2
	movapd	%xmm2, -64(%rbp)
	movq	$0, -56(%rbp)
	movapd	%xmm6, %xmm3
	mulpd	%xmm3, %xmm3
	movapd	-64(%rbp), %xmm4
	mulpd	%xmm4, %xmm4
	addpd	%xmm3, %xmm4
	haddpd	%xmm4, %xmm4
	sqrtsd	%xmm4, %xmm3
	shufpd	$0, %xmm3, %xmm3        ## xmm3 = xmm3[0,0]
	divpd	%xmm3, %xmm6
	divpd	%xmm3, %xmm2
	movapd	48(%r15), %xmm3
	movapd	64(%r15), %xmm4
	movapd	176(%r15), %xmm5
	movapd	192(%r15), %xmm7
	subpd	%xmm1, %xmm5
	mulpd	%xmm3, %xmm5
	subpd	%xmm0, %xmm7
	mulpd	%xmm4, %xmm7
	addpd	%xmm5, %xmm7
	haddpd	%xmm7, %xmm7
	mulpd	%xmm6, %xmm3
	mulpd	%xmm2, %xmm4
	addpd	%xmm3, %xmm4
	haddpd	%xmm4, %xmm4
	divsd	%xmm4, %xmm7
	shufpd	$0, %xmm7, %xmm7        ## xmm7 = xmm7[0,0]
	mulpd	%xmm7, %xmm6
	addpd	%xmm1, %xmm6
	mulpd	%xmm2, %xmm7
	addpd	%xmm0, %xmm7
	movapd	%xmm7, -128(%rbp)       ## 16-byte Spill
	cmpl	$0, 16208(%r15)
	je	LBB15_1
## BB#3:
	movapd	%xmm6, -160(%rbp)       ## 16-byte Spill
	movslq	%edx, %rax
	shlq	$4, %rax
	movapd	208(%r15,%rax), %xmm1
	jmp	LBB15_4
LBB15_1:                                ## %_ZN5Eigen6MatrixIdLi2ELi1ELi0ELi2ELi1EEC1Ev.exit.preheader.i
	movapd	%xmm6, -160(%rbp)       ## 16-byte Spill
	.align	4, 0x90
LBB15_2:                                ## %_ZN5Eigen6MatrixIdLi2ELi1ELi0ELi2ELi1EEC1Ev.exit.i
                                        ## =>This Inner Loop Header: Depth=1
	callq	_rand
	movl	%eax, %ebx
	callq	_rand
	xorps	%xmm0, %xmm0
	cvtsi2sdl	%eax, %xmm0
	xorps	%xmm1, %xmm1
	cvtsi2sdl	%ebx, %xmm1
	movsd	LCPI15_1(%rip), %xmm2
	divsd	%xmm2, %xmm0
	divsd	%xmm2, %xmm1
	addsd	%xmm0, %xmm0
	addsd	%xmm1, %xmm1
	movsd	LCPI15_2(%rip), %xmm2
	addsd	%xmm2, %xmm0
	addsd	%xmm2, %xmm1
	movsd	%xmm1, -48(%rbp)
	movsd	%xmm0, -40(%rbp)
	movapd	-48(%rbp), %xmm1
	movapd	%xmm1, %xmm0
	mulpd	%xmm0, %xmm0
	haddpd	%xmm0, %xmm0
	sqrtsd	%xmm0, %xmm0
	movsd	LCPI15_3(%rip), %xmm2
	ucomisd	%xmm0, %xmm2
	jb	LBB15_2
LBB15_4:                                ## %_ZN5Eigen6MatrixIdLi2ELi1ELi0ELi2ELi1EEC1INS_12CwiseUnaryOpINS_8internal18scalar_multiple_opIdEEKS1_EEEERKNS_10MatrixBaseIT_EE.exit
	movddup	16216(%r15), %xmm0
	mulpd	%xmm1, %xmm0
	movapd	80(%r15), %xmm1
	movapd	144(%r15), %xmm4
	pshufd	$68, %xmm0, %xmm2       ## xmm2 = xmm0[0,1,0,1]
	shufpd	$3, %xmm0, %xmm0        ## xmm0 = xmm0[1,1]
	xorpd	%xmm5, %xmm5
	movapd	112(%r15), %xmm3
	mulpd	%xmm5, %xmm3
	movapd	160(%r15), %xmm6
	mulpd	%xmm2, %xmm6
	movapd	96(%r15), %xmm7
	mulpd	%xmm0, %xmm7
	addpd	%xmm6, %xmm7
	mulpd	128(%r15), %xmm5
	addpd	%xmm7, %xmm5
	movapd	-112(%rbp), %xmm6       ## 16-byte Reload
	addpd	%xmm5, %xmm6
	movapd	%xmm6, %xmm5
	movapd	-128(%rbp), %xmm6       ## 16-byte Reload
	subpd	%xmm5, %xmm6
	movapd	%xmm6, -64(%rbp)
	movq	$0, -56(%rbp)
	testb	$8, %r14b
	jne	LBB15_7
## BB#5:                                ## %_ZN5Eigen6MatrixIdLi4ELi1ELi0ELi4ELi1EEC1ERKS1_.exit.i.i
	mulpd	%xmm4, %xmm2
	mulpd	%xmm1, %xmm0
	addpd	%xmm2, %xmm0
	addpd	%xmm3, %xmm0
	movapd	-144(%rbp), %xmm2       ## 16-byte Reload
	addpd	%xmm0, %xmm2
	movapd	-160(%rbp), %xmm3       ## 16-byte Reload
	subpd	%xmm2, %xmm3
	movapd	%xmm3, %xmm0
	mulpd	%xmm0, %xmm0
	movapd	-64(%rbp), %xmm1
	mulpd	%xmm1, %xmm1
	addpd	%xmm0, %xmm1
	haddpd	%xmm1, %xmm1
	sqrtsd	%xmm1, %xmm0
	shufpd	$0, %xmm0, %xmm0        ## xmm0 = xmm0[0,0]
	divpd	%xmm0, %xmm6
	movapd	%xmm2, (%r14)
	movapd	%xmm5, 16(%r14)
	leal	32(%r14), %eax
	movapd	%xmm6, -64(%rbp)
	movq	$0, -56(%rbp)
	testb	$8, %al
	jne	LBB15_7
## BB#6:                                ## %_ZN4LineC1EN5Eigen6MatrixIdLi4ELi1ELi0ELi4ELi1EEES2_.exit
	divpd	%xmm0, %xmm3
	movapd	%xmm3, %xmm0
	mulpd	%xmm0, %xmm0
	movapd	-64(%rbp), %xmm1
	mulpd	%xmm1, %xmm1
	addpd	%xmm0, %xmm1
	haddpd	%xmm1, %xmm1
	sqrtsd	%xmm1, %xmm0
	shufpd	$0, %xmm0, %xmm0        ## xmm0 = xmm0[0,0]
	divpd	%xmm0, %xmm3
	movapd	%xmm3, 32(%r14)
	divpd	%xmm0, %xmm6
	movapd	%xmm6, 48(%r14)
	movq	%r14, %rax
	addq	$152, %rsp
	popq	%rbx
	popq	%r14
	popq	%r15
	popq	%rbp
	retq
LBB15_7:
	leaq	L___func__._ZN5Eigen8internal11plain_arrayIdLi4ELi0ELi16EEC2Ev(%rip), %rax
	leaq	L_.str46(%rip), %rcx
	leaq	L_.str47(%rip), %rbx
	movl	$86, %edx
	movq	%rax, %rdi
	movq	%rcx, %rsi
	movq	%rbx, %rcx
	callq	___assert_rtn
	.cfi_endproc

	.section	__TEXT,__literal4,4byte_literals
	.align	2
LCPI16_0:
	.long	1065351538              ## float 0.999899983
	.section	__TEXT,__literal8,8byte_literals
	.align	3
LCPI16_1:
	.quad	4607182418800017408     ## double 1
LCPI16_2:
	.quad	4643176031446892544     ## double 255
LCPI16_3:
	.quad	4602678819172646912     ## double 0.5
LCPI16_4:
	.quad	0                       ## double 0
	.section	__TEXT,__text,regular,pure_instructions
	.globl	__Z20render_single_threadii
	.align	4, 0x90
__Z20render_single_threadii:            ## @_Z20render_single_threadii
	.cfi_startproc
## BB#0:
	pushq	%rbp
Ltmp143:
	.cfi_def_cfa_offset 16
Ltmp144:
	.cfi_offset %rbp, -16
	movq	%rsp, %rbp
Ltmp145:
	.cfi_def_cfa_register %rbp
	pushq	%r15
	pushq	%r14
	pushq	%r13
	pushq	%r12
	pushq	%rbx
	subq	$168, %rsp
Ltmp146:
	.cfi_offset %rbx, -56
Ltmp147:
	.cfi_offset %r12, -48
Ltmp148:
	.cfi_offset %r13, -40
Ltmp149:
	.cfi_offset %r14, -32
Ltmp150:
	.cfi_offset %r15, -24
	movl	%esi, -192(%rbp)        ## 4-byte Spill
	movl	%edi, %r15d
	movl	%r15d, -188(%rbp)       ## 4-byte Spill
	movl	_screenWidth(%rip), %ecx
	testl	%r15d, %r15d
	jle	LBB16_18
## BB#1:                                ## %.preheader20
	testl	%ecx, %ecx
	jle	LBB16_40
## BB#2:                                ## %.lr.ph
	xorl	%r12d, %r12d
	.align	4, 0x90
LBB16_3:                                ## =>This Loop Header: Depth=1
                                        ##     Child Loop BB16_6 Depth 2
                                        ##       Child Loop BB16_7 Depth 3
	movl	%r12d, %eax
	cltd
	idivl	_numThreads(%rip)
	cmpl	%esi, %edx
	jne	LBB16_17
## BB#4:                                ##   in Loop: Header=BB16_3 Depth=1
	movl	_screenHeight(%rip), %eax
	testl	%eax, %eax
	jle	LBB16_17
## BB#5:                                ## %_ZN5Eigen6MatrixIdLi4ELi1ELi0ELi4ELi1EEC1Ev.exit.lr.ph
                                        ##   in Loop: Header=BB16_3 Depth=1
	movq	%r12, %r14
	movabsq	$12884901888, %rax      ## imm = 0x300000000
	imulq	%rax, %r14
	sarq	$32, %r14
	leaq	1(%r14), %rax
	movq	%rax, -160(%rbp)        ## 8-byte Spill
	leaq	2(%r14), %rax
	movq	%rax, -168(%rbp)        ## 8-byte Spill
	xorl	%ebx, %ebx
	.align	4, 0x90
LBB16_6:                                ## %_ZN5Eigen6MatrixIdLi4ELi1ELi0ELi4ELi1EEC1Ev.exit
                                        ##   Parent Loop BB16_3 Depth=1
                                        ## =>  This Loop Header: Depth=2
                                        ##       Child Loop BB16_7 Depth 3
	leaq	-112(%rbp), %rdi
	movl	%r12d, %esi
	movl	%ebx, %edx
	movl	%r15d, %ecx
	movl	%r15d, %r13d
	callq	__Z16ColorMultisampleiii
	movaps	-112(%rbp), %xmm0
	movaps	%xmm0, -80(%rbp)
	movaps	-96(%rbp), %xmm0
	movaps	%xmm0, -64(%rbp)
	movsd	_color_gamma(%rip), %xmm0
	movsd	%xmm0, -152(%rbp)       ## 8-byte Spill
	xorl	%r15d, %r15d
	.align	4, 0x90
LBB16_7:                                ## %_ZN5Eigen15DenseCoeffsBaseINS_6MatrixIdLi4ELi1ELi0ELi4ELi1EEELi1EEixEl.exit14
                                        ##   Parent Loop BB16_3 Depth=1
                                        ##     Parent Loop BB16_6 Depth=2
                                        ## =>    This Inner Loop Header: Depth=3
	movsd	-80(%rbp,%r15,8), %xmm0
	minsd	LCPI16_1(%rip), %xmm0
	maxsd	LCPI16_4(%rip), %xmm0
	movsd	-152(%rbp), %xmm1       ## 8-byte Reload
	callq	_pow
	movsd	LCPI16_2(%rip), %xmm1
	mulsd	%xmm1, %xmm0
	addsd	LCPI16_3(%rip), %xmm0
	divsd	%xmm1, %xmm0
	movsd	%xmm0, -80(%rbp,%r15,8)
	incq	%r15
	cmpl	$3, %r15d
	jl	LBB16_7
## BB#8:                                ##   in Loop: Header=BB16_6 Depth=2
	movq	_img(%rip), %rax
	movl	(%rax), %ecx
	cmpl	%r12d, %ecx
	jle	LBB16_15
## BB#9:                                ##   in Loop: Header=BB16_6 Depth=2
	movl	4(%rax), %edx
	subl	%ebx, %edx
	jle	LBB16_15
## BB#10:                               ##   in Loop: Header=BB16_6 Depth=2
	movsd	-80(%rbp), %xmm0
	movsd	-72(%rbp), %xmm1
	cvtsd2ss	%xmm0, %xmm3
	cvtsd2ss	%xmm1, %xmm4
	movsd	-64(%rbp), %xmm0
	xorps	%xmm1, %xmm1
	cvtsd2ss	%xmm0, %xmm1
	movss	LCPI16_0(%rip), %xmm0
	movaps	%xmm0, %xmm2
	minss	%xmm2, %xmm3
	ucomiss	%xmm4, %xmm2
	seta	%r8b
	xorps	%xmm0, %xmm0
	ucomiss	%xmm4, %xmm0
	seta	%r9b
	ucomiss	%xmm1, %xmm2
	seta	%sil
	ucomiss	%xmm1, %xmm0
	seta	%dil
	testb	%r9b, %r8b
	xorps	%xmm2, %xmm2
	jne	LBB16_12
## BB#11:                               ##   in Loop: Header=BB16_6 Depth=2
	minss	LCPI16_0(%rip), %xmm4
	movaps	%xmm4, %xmm2
LBB16_12:                               ##   in Loop: Header=BB16_6 Depth=2
	xorps	%xmm4, %xmm4
	maxss	%xmm3, %xmm4
	testb	%dil, %sil
	jne	LBB16_14
## BB#13:                               ##   in Loop: Header=BB16_6 Depth=2
	minss	LCPI16_0(%rip), %xmm1
	movaps	%xmm1, %xmm0
LBB16_14:                               ##   in Loop: Header=BB16_6 Depth=2
	decl	%edx
	movq	32(%rax), %rsi
	imull	%edx, %ecx
	leal	(%rcx,%rcx,2), %ecx
	movslq	%ecx, %rcx
	leaq	(%rcx,%r14), %rdx
	movss	%xmm0, (%rsi,%rdx,4)
	movq	-160(%rbp), %rdx        ## 8-byte Reload
	leaq	(%rdx,%rcx), %rdx
	movss	%xmm2, (%rsi,%rdx,4)
	addq	-168(%rbp), %rcx        ## 8-byte Folded Reload
	movss	%xmm4, (%rsi,%rcx,4)
	incl	40(%rax)
LBB16_15:                               ## %_ZN2UI5Image10draw_pixelEiiN5Eigen6MatrixIfLi3ELi1ELi0ELi3ELi1EEE.exit12
                                        ##   in Loop: Header=BB16_6 Depth=2
	incl	%ebx
	cmpl	_screenHeight(%rip), %ebx
	movl	%r13d, %r15d
	jl	LBB16_6
## BB#16:                               ## %..loopexit_crit_edge
                                        ##   in Loop: Header=BB16_3 Depth=1
	movl	_screenWidth(%rip), %ecx
	movl	-192(%rbp), %esi        ## 4-byte Reload
LBB16_17:                               ## %.loopexit
                                        ##   in Loop: Header=BB16_3 Depth=1
	incq	%r12
	cmpl	%ecx, %r12d
	jl	LBB16_3
	jmp	LBB16_40
LBB16_18:
	movl	%r15d, %r13d
	negl	%r13d
	movl	%r15d, %eax
	notl	%eax
	movq	%rax, -184(%rbp)        ## 8-byte Spill
	leal	(%rcx,%rax), %eax
	cltd
	idivl	%r13d
	testl	%eax, %eax
	jle	LBB16_40
## BB#19:                               ## %.lr.ph36
	xorl	%edi, %edi
	.align	4, 0x90
LBB16_20:                               ## =>This Loop Header: Depth=1
                                        ##     Child Loop BB16_23 Depth 2
                                        ##       Child Loop BB16_29 Depth 3
                                        ##         Child Loop BB16_30 Depth 4
	movl	%edi, %eax
	cltd
	idivl	_numThreads(%rip)
	cmpl	%esi, %edx
	jne	LBB16_39
## BB#21:                               ## %.preheader30
                                        ##   in Loop: Header=BB16_20 Depth=1
	movl	_screenHeight(%rip), %eax
	movq	-184(%rbp), %rdx        ## 8-byte Reload
	addl	%edx, %eax
	cltd
	idivl	%r13d
	testl	%eax, %eax
	jle	LBB16_39
## BB#22:                               ## %_ZN5Eigen6MatrixIdLi4ELi1ELi0ELi4ELi1EEC1Ev.exit5.lr.ph
                                        ##   in Loop: Header=BB16_20 Depth=1
	movl	%edi, %eax
	movq	%rdi, -200(%rbp)        ## 8-byte Spill
	imull	%r13d, %eax
	movq	%rax, -152(%rbp)        ## 8-byte Spill
	movl	$-1, -160(%rbp)         ## 4-byte Folded Spill
	movl	$0, -168(%rbp)          ## 4-byte Folded Spill
	xorl	%esi, %esi
	.align	4, 0x90
LBB16_23:                               ## %_ZN5Eigen6MatrixIdLi4ELi1ELi0ELi4ELi1EEC1Ev.exit5
                                        ##   Parent Loop BB16_20 Depth=1
                                        ## =>  This Loop Header: Depth=2
                                        ##       Child Loop BB16_29 Depth 3
                                        ##         Child Loop BB16_30 Depth 4
	movl	%esi, -176(%rbp)        ## 4-byte Spill
	movl	%esi, %edx
	imull	%r13d, %edx
	movl	$1, %ecx
	leaq	-144(%rbp), %rdi
	movq	-152(%rbp), %rsi        ## 8-byte Reload
                                        ## kill: ESI<def> ESI<kill> RSI<kill>
	callq	__Z16ColorMultisampleiii
	testl	%r15d, %r15d
	jns	LBB16_37
## BB#24:                               ## %.preheader25.lr.ph
                                        ##   in Loop: Header=BB16_23 Depth=2
	movapd	-144(%rbp), %xmm0
	movsd	-128(%rbp), %xmm1
	movq	_img(%rip), %r15
	cvtsd2ss	%xmm0, %xmm3
	unpckhpd	%xmm0, %xmm0    ## xmm0 = xmm0[1,1]
	cvtsd2ss	%xmm0, %xmm2
	cvtsd2ss	%xmm1, %xmm4
	movss	LCPI16_0(%rip), %xmm5
	ucomiss	%xmm2, %xmm5
	seta	%bl
	xorpd	%xmm0, %xmm0
	ucomiss	%xmm2, %xmm0
	seta	%cl
	ucomiss	%xmm4, %xmm5
	seta	%sil
	ucomiss	%xmm4, %xmm0
	seta	%dl
	testb	%cl, %bl
	xorps	%xmm1, %xmm1
	jne	LBB16_26
## BB#25:                               ## %.preheader25.lr.ph
                                        ##   in Loop: Header=BB16_23 Depth=2
	minss	%xmm5, %xmm2
	movaps	%xmm2, %xmm1
LBB16_26:                               ## %.preheader25.lr.ph
                                        ##   in Loop: Header=BB16_23 Depth=2
	minss	%xmm5, %xmm3
	testb	%dl, %sil
	xorps	%xmm2, %xmm2
	jne	LBB16_28
## BB#27:                               ## %.preheader25.lr.ph
                                        ##   in Loop: Header=BB16_23 Depth=2
	minss	%xmm5, %xmm4
	movaps	%xmm4, %xmm2
LBB16_28:                               ## %.preheader25.lr.ph
                                        ##   in Loop: Header=BB16_23 Depth=2
	maxss	%xmm3, %xmm0
	xorl	%r10d, %r10d
	.align	4, 0x90
LBB16_29:                               ## %.lr.ph27
                                        ##   Parent Loop BB16_20 Depth=1
                                        ##     Parent Loop BB16_23 Depth=2
                                        ## =>    This Loop Header: Depth=3
                                        ##         Child Loop BB16_30 Depth 4
	movq	-152(%rbp), %rax        ## 8-byte Reload
	leaq	(%r10,%rax), %rdx
	movq	%rdx, %r11
	movabsq	$12884901888, %rax      ## imm = 0x300000000
	imulq	%rax, %r11
	sarq	$32, %r11
	leaq	1(%r11), %r8
	leaq	2(%r11), %r9
	xorl	%edi, %edi
	movl	-168(%rbp), %ebx        ## 4-byte Reload
	movl	-160(%rbp), %ecx        ## 4-byte Reload
	.align	4, 0x90
LBB16_30:                               ##   Parent Loop BB16_20 Depth=1
                                        ##     Parent Loop BB16_23 Depth=2
                                        ##       Parent Loop BB16_29 Depth=3
                                        ## =>      This Inner Loop Header: Depth=4
	testl	%edx, %edx
	js	LBB16_35
## BB#31:                               ##   in Loop: Header=BB16_30 Depth=4
	movl	(%r15), %esi
	cmpl	%edx, %esi
	jle	LBB16_35
## BB#32:                               ##   in Loop: Header=BB16_30 Depth=4
	testl	%ebx, %ebx
	js	LBB16_35
## BB#33:                               ##   in Loop: Header=BB16_30 Depth=4
	movl	4(%r15), %r14d
	cmpl	%ebx, %r14d
	jle	LBB16_35
## BB#34:                               ##   in Loop: Header=BB16_30 Depth=4
	movq	32(%r15), %r12
	addl	%ecx, %r14d
	imull	%r14d, %esi
	leal	(%rsi,%rsi,2), %esi
	movslq	%esi, %rsi
	leaq	(%rsi,%r11), %rax
	movss	%xmm2, (%r12,%rax,4)
	leaq	(%r8,%rsi), %rax
	movss	%xmm1, (%r12,%rax,4)
	addq	%r9, %rsi
	movss	%xmm0, (%r12,%rsi,4)
	incl	40(%r15)
	.align	4, 0x90
LBB16_35:                               ## %_ZN2UI5Image10draw_pixelEiiN5Eigen6MatrixIfLi3ELi1ELi0ELi3ELi1EEE.exit
                                        ##   in Loop: Header=BB16_30 Depth=4
	incl	%edi
	decl	%ecx
	incl	%ebx
	cmpl	%r13d, %edi
	jl	LBB16_30
## BB#36:                               ## %._crit_edge
                                        ##   in Loop: Header=BB16_29 Depth=3
	incq	%r10
	cmpl	%r13d, %r10d
	jl	LBB16_29
LBB16_37:                               ## %._crit_edge29
                                        ##   in Loop: Header=BB16_23 Depth=2
	movl	-176(%rbp), %esi        ## 4-byte Reload
	incl	%esi
	movl	_screenHeight(%rip), %eax
	movq	-184(%rbp), %rcx        ## 8-byte Reload
	addl	%ecx, %eax
	cltd
	idivl	%r13d
	movl	-188(%rbp), %r15d       ## 4-byte Reload
	addl	%r15d, -160(%rbp)       ## 4-byte Folded Spill
	subl	%r15d, -168(%rbp)       ## 4-byte Folded Spill
	cmpl	%eax, %esi
	jl	LBB16_23
## BB#38:                               ## %..loopexit31_crit_edge
                                        ##   in Loop: Header=BB16_20 Depth=1
	movl	_screenWidth(%rip), %ecx
	movl	-192(%rbp), %esi        ## 4-byte Reload
	movq	-200(%rbp), %rdi        ## 8-byte Reload
LBB16_39:                               ## %.loopexit31
                                        ##   in Loop: Header=BB16_20 Depth=1
	incq	%rdi
	movq	-184(%rbp), %rax        ## 8-byte Reload
	leal	(%rcx,%rax), %eax
	cltd
	idivl	%r13d
	cmpl	%eax, %edi
	jl	LBB16_20
LBB16_40:                               ## %.loopexit21
	addq	$168, %rsp
	popq	%rbx
	popq	%r12
	popq	%r13
	popq	%r14
	popq	%r15
	popq	%rbp
	retq
	.cfi_endproc

	.globl	__Z23render_with_sample_ratei
	.align	4, 0x90
__Z23render_with_sample_ratei:          ## @_Z23render_with_sample_ratei
	.cfi_startproc
	.cfi_personality 155, ___gxx_personality_v0
Leh_func_begin17:
	.cfi_lsda 16, Lexception17
## BB#0:
	pushq	%rbp
Ltmp168:
	.cfi_def_cfa_offset 16
Ltmp169:
	.cfi_offset %rbp, -16
	movq	%rsp, %rbp
Ltmp170:
	.cfi_def_cfa_register %rbp
	pushq	%r15
	pushq	%r14
	pushq	%r13
	pushq	%r12
	pushq	%rbx
	subq	$40, %rsp
Ltmp171:
	.cfi_offset %rbx, -56
Ltmp172:
	.cfi_offset %r12, -48
Ltmp173:
	.cfi_offset %r13, -40
Ltmp174:
	.cfi_offset %r14, -32
Ltmp175:
	.cfi_offset %r15, -24
	movl	%edi, %r15d
	testl	%r15d, %r15d
	jne	LBB17_2
## BB#1:
	leaq	L_.str9(%rip), %rdi
	xorl	%eax, %eax
	callq	_printf
LBB17_2:
	xorps	%xmm0, %xmm0
	movaps	%xmm0, -64(%rbp)
	movq	$0, -48(%rbp)
	cmpl	$0, _numThreads(%rip)
	jle	LBB17_3
## BB#10:                               ## %.lr.ph11
	xorl	%r14d, %r14d
	leaq	-56(%rbp), %r13
	leaq	-72(%rbp), %rbx
	.align	4, 0x90
LBB17_11:                               ## =>This Inner Loop Header: Depth=1
Ltmp151:
	movl	$16, %edi
	callq	__Znwm
	movq	%rax, %r12
Ltmp152:
## BB#12:                               ## %.noexc
                                        ##   in Loop: Header=BB17_11 Depth=1
	leaq	__Z20render_single_threadii(%rip), %rax
	movq	%rax, (%r12)
	movl	%r15d, 8(%r12)
	movl	%r14d, 12(%r12)
Ltmp154:
	xorl	%esi, %esi
	movq	%rbx, %rdi
	movq	__ZNSt3__114__thread_proxyINS_5tupleIJPFviiEiiEEEEEPvS5_@GOTPCREL(%rip), %rdx
	movq	%r12, %rcx
	callq	_pthread_create
Ltmp155:
## BB#13:                               ##   in Loop: Header=BB17_11 Depth=1
	testl	%eax, %eax
	je	LBB17_16
## BB#14:                               ##   in Loop: Header=BB17_11 Depth=1
Ltmp156:
	movl	%eax, %edi
	leaq	L_.str38(%rip), %rsi
	callq	__ZNSt3__120__throw_system_errorEiPKc
Ltmp157:
## BB#15:                               ## %_ZNKSt3__114default_deleteINS_5tupleIJPFviiEiiEEEEclEPS4_.exit.i.i.i.i.i
                                        ##   in Loop: Header=BB17_11 Depth=1
	movq	%r12, %rdi
	callq	__ZdlPv
LBB17_16:                               ## %_ZNSt3__16threadC1IRFviiEJRiS4_EvEEOT_DpOT0_.exit
                                        ##   in Loop: Header=BB17_11 Depth=1
	movq	-56(%rbp), %rax
	cmpq	-48(%rbp), %rax
	jae	LBB17_20
## BB#17:                               ##   in Loop: Header=BB17_11 Depth=1
	testq	%rax, %rax
	je	LBB17_19
## BB#18:                               ##   in Loop: Header=BB17_11 Depth=1
	movq	-72(%rbp), %rcx
	movq	%rcx, (%rax)
	movq	$0, -72(%rbp)
LBB17_19:                               ## %_ZNSt3__116allocator_traitsINS_9allocatorINS_6threadEEEE9constructIS2_JS2_EEEvRS3_PT_DpOT0_.exit.i
                                        ##   in Loop: Header=BB17_11 Depth=1
	addq	$8, %rax
	movq	%rax, -56(%rbp)
	jmp	LBB17_21
	.align	4, 0x90
LBB17_20:                               ##   in Loop: Header=BB17_11 Depth=1
Ltmp159:
	leaq	-64(%rbp), %rdi
	movq	%rbx, %rsi
	callq	__ZNSt3__16vectorINS_6threadENS_9allocatorIS1_EEE21__push_back_slow_pathIS1_EEvOT_
Ltmp160:
LBB17_21:                               ## %_ZNSt3__16vectorINS_6threadENS_9allocatorIS1_EEE9push_backEOS1_.exit
                                        ##   in Loop: Header=BB17_11 Depth=1
	movq	%rbx, %rdi
	callq	__ZNSt3__16threadD1Ev
	incl	%r14d
	cmpl	_numThreads(%rip), %r14d
	jl	LBB17_11
## BB#22:
	movq	-64(%rbp), %rbx
	movq	-56(%rbp), %r14
	cmpq	%r14, %rbx
	je	LBB17_4
	.align	4, 0x90
LBB17_23:                               ## %.lr.ph
                                        ## =>This Inner Loop Header: Depth=1
Ltmp162:
	movq	%rbx, %rdi
	callq	__ZNSt3__16thread4joinEv
Ltmp163:
## BB#24:                               ##   in Loop: Header=BB17_23 Depth=1
	addq	$8, %rbx
	cmpq	%rbx, %r14
	jne	LBB17_23
	jmp	LBB17_4
LBB17_3:                                ## %.thread
	leaq	-56(%rbp), %r13
LBB17_4:                                ## %._crit_edge
	movq	-64(%rbp), %rbx
	testq	%rbx, %rbx
	je	LBB17_9
## BB#5:
	movq	(%r13), %rdi
	cmpq	%rbx, %rdi
	je	LBB17_8
	.align	4, 0x90
LBB17_6:                                ## %.lr.ph.i.i.i.i.i3
                                        ## =>This Inner Loop Header: Depth=1
	addq	$-8, %rdi
	movq	%rdi, (%r13)
	callq	__ZNSt3__16threadD1Ev
	movq	(%r13), %rdi
	cmpq	%rbx, %rdi
	jne	LBB17_6
## BB#7:                                ## %_ZNSt3__113__vector_baseINS_6threadENS_9allocatorIS1_EEE5clearEv.exit.loopexit.i.i.i5
	movq	-64(%rbp), %rbx
LBB17_8:                                ## %_ZNSt3__113__vector_baseINS_6threadENS_9allocatorIS1_EEE5clearEv.exit.i.i.i6
	movq	%rbx, %rdi
	callq	__ZdlPv
LBB17_9:                                ## %_ZNSt3__16vectorINS_6threadENS_9allocatorIS1_EEED1Ev.exit7
	addq	$40, %rsp
	popq	%rbx
	popq	%r12
	popq	%r13
	popq	%r14
	popq	%r15
	popq	%rbp
	retq
LBB17_35:
Ltmp158:
	movq	%rax, %r14
	movq	%r12, %rdi
	callq	__ZdlPv
	jmp	LBB17_29
LBB17_26:                               ## %.nonloopexit
Ltmp153:
	movq	%rax, %r14
	jmp	LBB17_29
LBB17_28:
Ltmp161:
	movq	%rax, %r14
	leaq	-72(%rbp), %rdi
	callq	__ZNSt3__16threadD1Ev
	jmp	LBB17_29
LBB17_25:                               ## %.loopexit
Ltmp164:
	movq	%rax, %r14
LBB17_29:
	movq	-64(%rbp), %rbx
	testq	%rbx, %rbx
	je	LBB17_34
## BB#30:
	movq	-56(%rbp), %rdi
	cmpq	%rbx, %rdi
	je	LBB17_33
	.align	4, 0x90
LBB17_31:                               ## %.lr.ph.i.i.i.i.i
                                        ## =>This Inner Loop Header: Depth=1
	addq	$-8, %rdi
	movq	%rdi, -56(%rbp)
	callq	__ZNSt3__16threadD1Ev
	movq	-56(%rbp), %rdi
	cmpq	%rbx, %rdi
	jne	LBB17_31
## BB#32:                               ## %_ZNSt3__113__vector_baseINS_6threadENS_9allocatorIS1_EEE5clearEv.exit.loopexit.i.i.i
	movq	-64(%rbp), %rbx
LBB17_33:                               ## %_ZNSt3__113__vector_baseINS_6threadENS_9allocatorIS1_EEE5clearEv.exit.i.i.i
	movq	%rbx, %rdi
	callq	__ZdlPv
LBB17_34:                               ## %_ZNSt3__16vectorINS_6threadENS_9allocatorIS1_EEED1Ev.exit
	movq	%r14, %rdi
	callq	__Unwind_Resume
	.cfi_endproc
Leh_func_end17:
	.section	__TEXT,__gcc_except_tab
	.align	2
GCC_except_table17:
Lexception17:
	.byte	255                     ## @LPStart Encoding = omit
	.byte	155                     ## @TType Encoding = indirect pcrel sdata4
	.asciz	"\303\200"              ## @TType base offset
	.byte	3                       ## Call site Encoding = udata4
	.byte	65                      ## Call site table length
Lset11 = Ltmp151-Leh_func_begin17       ## >> Call Site 1 <<
	.long	Lset11
Lset12 = Ltmp152-Ltmp151                ##   Call between Ltmp151 and Ltmp152
	.long	Lset12
Lset13 = Ltmp153-Leh_func_begin17       ##     jumps to Ltmp153
	.long	Lset13
	.byte	0                       ##   On action: cleanup
Lset14 = Ltmp154-Leh_func_begin17       ## >> Call Site 2 <<
	.long	Lset14
Lset15 = Ltmp157-Ltmp154                ##   Call between Ltmp154 and Ltmp157
	.long	Lset15
Lset16 = Ltmp158-Leh_func_begin17       ##     jumps to Ltmp158
	.long	Lset16
	.byte	0                       ##   On action: cleanup
Lset17 = Ltmp159-Leh_func_begin17       ## >> Call Site 3 <<
	.long	Lset17
Lset18 = Ltmp160-Ltmp159                ##   Call between Ltmp159 and Ltmp160
	.long	Lset18
Lset19 = Ltmp161-Leh_func_begin17       ##     jumps to Ltmp161
	.long	Lset19
	.byte	0                       ##   On action: cleanup
Lset20 = Ltmp162-Leh_func_begin17       ## >> Call Site 4 <<
	.long	Lset20
Lset21 = Ltmp163-Ltmp162                ##   Call between Ltmp162 and Ltmp163
	.long	Lset21
Lset22 = Ltmp164-Leh_func_begin17       ##     jumps to Ltmp164
	.long	Lset22
	.byte	0                       ##   On action: cleanup
Lset23 = Ltmp163-Leh_func_begin17       ## >> Call Site 5 <<
	.long	Lset23
Lset24 = Leh_func_end17-Ltmp163         ##   Call between Ltmp163 and Leh_func_end17
	.long	Lset24
	.long	0                       ##     has no landing pad
	.byte	0                       ##   On action: cleanup
	.align	2

	.section	__TEXT,__text,regular,pure_instructions
	.globl	__Z6renderi
	.align	4, 0x90
__Z6renderi:                            ## @_Z6renderi
	.cfi_startproc
## BB#0:
	pushq	%rbp
Ltmp178:
	.cfi_def_cfa_offset 16
Ltmp179:
	.cfi_offset %rbp, -16
	movq	%rsp, %rbp
Ltmp180:
	.cfi_def_cfa_register %rbp
	popq	%rbp
	jmp	__Z23render_with_sample_ratei ## TAILCALL
	.cfi_endproc

	.globl	__Z11onMouseMoveii
	.align	4, 0x90
__Z11onMouseMoveii:                     ## @_Z11onMouseMoveii
	.cfi_startproc
## BB#0:
	pushq	%rbp
Ltmp183:
	.cfi_def_cfa_offset 16
Ltmp184:
	.cfi_offset %rbp, -16
	movq	%rsp, %rbp
Ltmp185:
	.cfi_def_cfa_register %rbp
	popq	%rbp
	retq
	.cfi_endproc

	.globl	_set_show_variance
	.align	4, 0x90
_set_show_variance:                     ## @set_show_variance
	.cfi_startproc
	.cfi_personality 155, ___gxx_personality_v0
Leh_func_begin20:
	.cfi_lsda 16, Lexception20
## BB#0:
	pushq	%rbp
Ltmp194:
	.cfi_def_cfa_offset 16
Ltmp195:
	.cfi_offset %rbp, -16
	movq	%rsp, %rbp
Ltmp196:
	.cfi_def_cfa_register %rbp
	pushq	%r14
	pushq	%rbx
	subq	$16, %rsp
Ltmp197:
	.cfi_offset %rbx, -32
Ltmp198:
	.cfi_offset %r14, -24
	movl	%edi, %ebx
	movl	%ebx, _show_variance(%rip)
	movq	__ZNSt3__14coutE@GOTPCREL(%rip), %rdi
	leaq	L_.str10(%rip), %rsi
	movl	$12, %edx
	callq	__ZNSt3__124__put_character_sequenceIcNS_11char_traitsIcEEEERNS_13basic_ostreamIT_T0_EES7_PKS4_m
	leaq	L_.str11(%rip), %rsi
	movl	$13, %edx
	movq	%rax, %rdi
	callq	__ZNSt3__124__put_character_sequenceIcNS_11char_traitsIcEEEERNS_13basic_ostreamIT_T0_EES7_PKS4_m
	leaq	L_.str12(%rip), %rsi
	movl	$3, %edx
	movq	%rax, %rdi
	callq	__ZNSt3__124__put_character_sequenceIcNS_11char_traitsIcEEEERNS_13basic_ostreamIT_T0_EES7_PKS4_m
	movq	%rax, %rdi
	movl	%ebx, %esi
	callq	__ZNSt3__113basic_ostreamIcNS_11char_traitsIcEEElsEi
	movq	%rax, %rbx
	movq	(%rbx), %rax
	movq	-24(%rax), %rsi
	addq	%rbx, %rsi
	leaq	-24(%rbp), %r14
	movq	%r14, %rdi
	callq	__ZNKSt3__18ios_base6getlocEv
Ltmp186:
	movq	__ZNSt3__15ctypeIcE2idE@GOTPCREL(%rip), %rsi
	movq	%r14, %rdi
	callq	__ZNKSt3__16locale9use_facetERNS0_2idE
Ltmp187:
## BB#1:
	movq	(%rax), %rcx
	movq	56(%rcx), %rcx
Ltmp188:
	movl	$10, %esi
	movq	%rax, %rdi
	callq	*%rcx
	movb	%al, %r14b
Ltmp189:
## BB#2:                                ## %_ZNKSt3__19basic_iosIcNS_11char_traitsIcEEE5widenEc.exit
	leaq	-24(%rbp), %rdi
	callq	__ZNSt3__16localeD1Ev
	movsbl	%r14b, %esi
	movq	%rbx, %rdi
	callq	__ZNSt3__113basic_ostreamIcNS_11char_traitsIcEEE3putEc
	movq	%rbx, %rdi
	callq	__ZNSt3__113basic_ostreamIcNS_11char_traitsIcEEE5flushEv
	addq	$16, %rsp
	popq	%rbx
	popq	%r14
	popq	%rbp
	retq
LBB20_3:
Ltmp190:
	movq	%rax, %rbx
	leaq	-24(%rbp), %rax
	movq	%rax, %rdi
	callq	__ZNSt3__16localeD1Ev
	movq	%rbx, %rdi
	callq	__Unwind_Resume
	.cfi_endproc
Leh_func_end20:
	.section	__TEXT,__gcc_except_tab
	.align	2
GCC_except_table20:
Lexception20:
	.byte	255                     ## @LPStart Encoding = omit
	.byte	155                     ## @TType Encoding = indirect pcrel sdata4
	.byte	41                      ## @TType base offset
	.byte	3                       ## Call site Encoding = udata4
	.byte	39                      ## Call site table length
Lset25 = Leh_func_begin20-Leh_func_begin20 ## >> Call Site 1 <<
	.long	Lset25
Lset26 = Ltmp186-Leh_func_begin20       ##   Call between Leh_func_begin20 and Ltmp186
	.long	Lset26
	.long	0                       ##     has no landing pad
	.byte	0                       ##   On action: cleanup
Lset27 = Ltmp186-Leh_func_begin20       ## >> Call Site 2 <<
	.long	Lset27
Lset28 = Ltmp189-Ltmp186                ##   Call between Ltmp186 and Ltmp189
	.long	Lset28
Lset29 = Ltmp190-Leh_func_begin20       ##     jumps to Ltmp190
	.long	Lset29
	.byte	0                       ##   On action: cleanup
Lset30 = Ltmp189-Leh_func_begin20       ## >> Call Site 3 <<
	.long	Lset30
Lset31 = Leh_func_end20-Ltmp189         ##   Call between Ltmp189 and Leh_func_end20
	.long	Lset31
	.long	0                       ##     has no landing pad
	.byte	0                       ##   On action: cleanup
	.align	2

	.section	__TEXT,__text,regular,pure_instructions
	.globl	_get_show_variance
	.align	4, 0x90
_get_show_variance:                     ## @get_show_variance
	.cfi_startproc
## BB#0:
	pushq	%rbp
Ltmp201:
	.cfi_def_cfa_offset 16
Ltmp202:
	.cfi_offset %rbp, -16
	movq	%rsp, %rbp
Ltmp203:
	.cfi_def_cfa_register %rbp
	movl	_show_variance(%rip), %eax
	popq	%rbp
	retq
	.cfi_endproc

	.globl	_get_type_of_show_variance
	.align	4, 0x90
_get_type_of_show_variance:             ## @get_type_of_show_variance
	.cfi_startproc
## BB#0:
	pushq	%rbp
Ltmp206:
	.cfi_def_cfa_offset 16
Ltmp207:
	.cfi_offset %rbp, -16
	movq	%rsp, %rbp
Ltmp208:
	.cfi_def_cfa_register %rbp
	movq	__ZTIi@GOTPCREL(%rip), %rax
	movq	8(%rax), %rax
	popq	%rbp
	retq
	.cfi_endproc

	.globl	_set_screenWidth
	.align	4, 0x90
_set_screenWidth:                       ## @set_screenWidth
	.cfi_startproc
	.cfi_personality 155, ___gxx_personality_v0
Leh_func_begin23:
	.cfi_lsda 16, Lexception23
## BB#0:
	pushq	%rbp
Ltmp217:
	.cfi_def_cfa_offset 16
Ltmp218:
	.cfi_offset %rbp, -16
	movq	%rsp, %rbp
Ltmp219:
	.cfi_def_cfa_register %rbp
	pushq	%r14
	pushq	%rbx
	subq	$16, %rsp
Ltmp220:
	.cfi_offset %rbx, -32
Ltmp221:
	.cfi_offset %r14, -24
	movl	%edi, %ebx
	movl	%ebx, _screenWidth(%rip)
	movq	__ZNSt3__14coutE@GOTPCREL(%rip), %rdi
	leaq	L_.str10(%rip), %rsi
	movl	$12, %edx
	callq	__ZNSt3__124__put_character_sequenceIcNS_11char_traitsIcEEEERNS_13basic_ostreamIT_T0_EES7_PKS4_m
	leaq	L_.str13(%rip), %rsi
	movl	$11, %edx
	movq	%rax, %rdi
	callq	__ZNSt3__124__put_character_sequenceIcNS_11char_traitsIcEEEERNS_13basic_ostreamIT_T0_EES7_PKS4_m
	leaq	L_.str12(%rip), %rsi
	movl	$3, %edx
	movq	%rax, %rdi
	callq	__ZNSt3__124__put_character_sequenceIcNS_11char_traitsIcEEEERNS_13basic_ostreamIT_T0_EES7_PKS4_m
	movq	%rax, %rdi
	movl	%ebx, %esi
	callq	__ZNSt3__113basic_ostreamIcNS_11char_traitsIcEEElsEi
	movq	%rax, %rbx
	movq	(%rbx), %rax
	movq	-24(%rax), %rsi
	addq	%rbx, %rsi
	leaq	-24(%rbp), %r14
	movq	%r14, %rdi
	callq	__ZNKSt3__18ios_base6getlocEv
Ltmp209:
	movq	__ZNSt3__15ctypeIcE2idE@GOTPCREL(%rip), %rsi
	movq	%r14, %rdi
	callq	__ZNKSt3__16locale9use_facetERNS0_2idE
Ltmp210:
## BB#1:
	movq	(%rax), %rcx
	movq	56(%rcx), %rcx
Ltmp211:
	movl	$10, %esi
	movq	%rax, %rdi
	callq	*%rcx
	movb	%al, %r14b
Ltmp212:
## BB#2:                                ## %_ZNSt3__14endlIcNS_11char_traitsIcEEEERNS_13basic_ostreamIT_T0_EES7_.exit
	leaq	-24(%rbp), %rdi
	callq	__ZNSt3__16localeD1Ev
	movsbl	%r14b, %esi
	movq	%rbx, %rdi
	callq	__ZNSt3__113basic_ostreamIcNS_11char_traitsIcEEE3putEc
	movq	%rbx, %rdi
	callq	__ZNSt3__113basic_ostreamIcNS_11char_traitsIcEEE5flushEv
	addq	$16, %rsp
	popq	%rbx
	popq	%r14
	popq	%rbp
	retq
LBB23_3:
Ltmp213:
	movq	%rax, %rbx
	leaq	-24(%rbp), %rax
	movq	%rax, %rdi
	callq	__ZNSt3__16localeD1Ev
	movq	%rbx, %rdi
	callq	__Unwind_Resume
	.cfi_endproc
Leh_func_end23:
	.section	__TEXT,__gcc_except_tab
	.align	2
GCC_except_table23:
Lexception23:
	.byte	255                     ## @LPStart Encoding = omit
	.byte	155                     ## @TType Encoding = indirect pcrel sdata4
	.byte	41                      ## @TType base offset
	.byte	3                       ## Call site Encoding = udata4
	.byte	39                      ## Call site table length
Lset32 = Leh_func_begin23-Leh_func_begin23 ## >> Call Site 1 <<
	.long	Lset32
Lset33 = Ltmp209-Leh_func_begin23       ##   Call between Leh_func_begin23 and Ltmp209
	.long	Lset33
	.long	0                       ##     has no landing pad
	.byte	0                       ##   On action: cleanup
Lset34 = Ltmp209-Leh_func_begin23       ## >> Call Site 2 <<
	.long	Lset34
Lset35 = Ltmp212-Ltmp209                ##   Call between Ltmp209 and Ltmp212
	.long	Lset35
Lset36 = Ltmp213-Leh_func_begin23       ##     jumps to Ltmp213
	.long	Lset36
	.byte	0                       ##   On action: cleanup
Lset37 = Ltmp212-Leh_func_begin23       ## >> Call Site 3 <<
	.long	Lset37
Lset38 = Leh_func_end23-Ltmp212         ##   Call between Ltmp212 and Leh_func_end23
	.long	Lset38
	.long	0                       ##     has no landing pad
	.byte	0                       ##   On action: cleanup
	.align	2

	.section	__TEXT,__text,regular,pure_instructions
	.globl	_get_screenWidth
	.align	4, 0x90
_get_screenWidth:                       ## @get_screenWidth
	.cfi_startproc
## BB#0:
	pushq	%rbp
Ltmp224:
	.cfi_def_cfa_offset 16
Ltmp225:
	.cfi_offset %rbp, -16
	movq	%rsp, %rbp
Ltmp226:
	.cfi_def_cfa_register %rbp
	movl	_screenWidth(%rip), %eax
	popq	%rbp
	retq
	.cfi_endproc

	.globl	_get_type_of_screenWidth
	.align	4, 0x90
_get_type_of_screenWidth:               ## @get_type_of_screenWidth
	.cfi_startproc
## BB#0:
	pushq	%rbp
Ltmp229:
	.cfi_def_cfa_offset 16
Ltmp230:
	.cfi_offset %rbp, -16
	movq	%rsp, %rbp
Ltmp231:
	.cfi_def_cfa_register %rbp
	movq	__ZTIi@GOTPCREL(%rip), %rax
	movq	8(%rax), %rax
	popq	%rbp
	retq
	.cfi_endproc

	.globl	_set_screenHeight
	.align	4, 0x90
_set_screenHeight:                      ## @set_screenHeight
	.cfi_startproc
	.cfi_personality 155, ___gxx_personality_v0
Leh_func_begin26:
	.cfi_lsda 16, Lexception26
## BB#0:
	pushq	%rbp
Ltmp240:
	.cfi_def_cfa_offset 16
Ltmp241:
	.cfi_offset %rbp, -16
	movq	%rsp, %rbp
Ltmp242:
	.cfi_def_cfa_register %rbp
	pushq	%r14
	pushq	%rbx
	subq	$16, %rsp
Ltmp243:
	.cfi_offset %rbx, -32
Ltmp244:
	.cfi_offset %r14, -24
	movl	%edi, %ebx
	movl	%ebx, _screenHeight(%rip)
	movq	__ZNSt3__14coutE@GOTPCREL(%rip), %rdi
	leaq	L_.str10(%rip), %rsi
	movl	$12, %edx
	callq	__ZNSt3__124__put_character_sequenceIcNS_11char_traitsIcEEEERNS_13basic_ostreamIT_T0_EES7_PKS4_m
	leaq	L_.str14(%rip), %rsi
	movl	$12, %edx
	movq	%rax, %rdi
	callq	__ZNSt3__124__put_character_sequenceIcNS_11char_traitsIcEEEERNS_13basic_ostreamIT_T0_EES7_PKS4_m
	leaq	L_.str12(%rip), %rsi
	movl	$3, %edx
	movq	%rax, %rdi
	callq	__ZNSt3__124__put_character_sequenceIcNS_11char_traitsIcEEEERNS_13basic_ostreamIT_T0_EES7_PKS4_m
	movq	%rax, %rdi
	movl	%ebx, %esi
	callq	__ZNSt3__113basic_ostreamIcNS_11char_traitsIcEEElsEi
	movq	%rax, %rbx
	movq	(%rbx), %rax
	movq	-24(%rax), %rsi
	addq	%rbx, %rsi
	leaq	-24(%rbp), %r14
	movq	%r14, %rdi
	callq	__ZNKSt3__18ios_base6getlocEv
Ltmp232:
	movq	__ZNSt3__15ctypeIcE2idE@GOTPCREL(%rip), %rsi
	movq	%r14, %rdi
	callq	__ZNKSt3__16locale9use_facetERNS0_2idE
Ltmp233:
## BB#1:
	movq	(%rax), %rcx
	movq	56(%rcx), %rcx
Ltmp234:
	movl	$10, %esi
	movq	%rax, %rdi
	callq	*%rcx
	movb	%al, %r14b
Ltmp235:
## BB#2:                                ## %_ZNSt3__14endlIcNS_11char_traitsIcEEEERNS_13basic_ostreamIT_T0_EES7_.exit
	leaq	-24(%rbp), %rdi
	callq	__ZNSt3__16localeD1Ev
	movsbl	%r14b, %esi
	movq	%rbx, %rdi
	callq	__ZNSt3__113basic_ostreamIcNS_11char_traitsIcEEE3putEc
	movq	%rbx, %rdi
	callq	__ZNSt3__113basic_ostreamIcNS_11char_traitsIcEEE5flushEv
	addq	$16, %rsp
	popq	%rbx
	popq	%r14
	popq	%rbp
	retq
LBB26_3:
Ltmp236:
	movq	%rax, %rbx
	leaq	-24(%rbp), %rax
	movq	%rax, %rdi
	callq	__ZNSt3__16localeD1Ev
	movq	%rbx, %rdi
	callq	__Unwind_Resume
	.cfi_endproc
Leh_func_end26:
	.section	__TEXT,__gcc_except_tab
	.align	2
GCC_except_table26:
Lexception26:
	.byte	255                     ## @LPStart Encoding = omit
	.byte	155                     ## @TType Encoding = indirect pcrel sdata4
	.byte	41                      ## @TType base offset
	.byte	3                       ## Call site Encoding = udata4
	.byte	39                      ## Call site table length
Lset39 = Leh_func_begin26-Leh_func_begin26 ## >> Call Site 1 <<
	.long	Lset39
Lset40 = Ltmp232-Leh_func_begin26       ##   Call between Leh_func_begin26 and Ltmp232
	.long	Lset40
	.long	0                       ##     has no landing pad
	.byte	0                       ##   On action: cleanup
Lset41 = Ltmp232-Leh_func_begin26       ## >> Call Site 2 <<
	.long	Lset41
Lset42 = Ltmp235-Ltmp232                ##   Call between Ltmp232 and Ltmp235
	.long	Lset42
Lset43 = Ltmp236-Leh_func_begin26       ##     jumps to Ltmp236
	.long	Lset43
	.byte	0                       ##   On action: cleanup
Lset44 = Ltmp235-Leh_func_begin26       ## >> Call Site 3 <<
	.long	Lset44
Lset45 = Leh_func_end26-Ltmp235         ##   Call between Ltmp235 and Leh_func_end26
	.long	Lset45
	.long	0                       ##     has no landing pad
	.byte	0                       ##   On action: cleanup
	.align	2

	.section	__TEXT,__text,regular,pure_instructions
	.globl	_get_screenHeight
	.align	4, 0x90
_get_screenHeight:                      ## @get_screenHeight
	.cfi_startproc
## BB#0:
	pushq	%rbp
Ltmp247:
	.cfi_def_cfa_offset 16
Ltmp248:
	.cfi_offset %rbp, -16
	movq	%rsp, %rbp
Ltmp249:
	.cfi_def_cfa_register %rbp
	movl	_screenHeight(%rip), %eax
	popq	%rbp
	retq
	.cfi_endproc

	.globl	_get_type_of_screenHeight
	.align	4, 0x90
_get_type_of_screenHeight:              ## @get_type_of_screenHeight
	.cfi_startproc
## BB#0:
	pushq	%rbp
Ltmp252:
	.cfi_def_cfa_offset 16
Ltmp253:
	.cfi_offset %rbp, -16
	movq	%rsp, %rbp
Ltmp254:
	.cfi_def_cfa_register %rbp
	movq	__ZTIi@GOTPCREL(%rip), %rax
	movq	8(%rax), %rax
	popq	%rbp
	retq
	.cfi_endproc

	.globl	_set_viewPortSize
	.align	4, 0x90
_set_viewPortSize:                      ## @set_viewPortSize
	.cfi_startproc
	.cfi_personality 155, ___gxx_personality_v0
Leh_func_begin29:
	.cfi_lsda 16, Lexception29
## BB#0:
	pushq	%rbp
Ltmp263:
	.cfi_def_cfa_offset 16
Ltmp264:
	.cfi_offset %rbp, -16
	movq	%rsp, %rbp
Ltmp265:
	.cfi_def_cfa_register %rbp
	pushq	%r14
	pushq	%rbx
	subq	$16, %rsp
Ltmp266:
	.cfi_offset %rbx, -32
Ltmp267:
	.cfi_offset %r14, -24
	movsd	%xmm0, -32(%rbp)        ## 8-byte Spill
	movsd	%xmm0, _camera(%rip)
	movq	__ZNSt3__14coutE@GOTPCREL(%rip), %rdi
	leaq	L_.str10(%rip), %rsi
	movl	$12, %edx
	callq	__ZNSt3__124__put_character_sequenceIcNS_11char_traitsIcEEEERNS_13basic_ostreamIT_T0_EES7_PKS4_m
	leaq	L_.str15(%rip), %rsi
	movl	$19, %edx
	movq	%rax, %rdi
	callq	__ZNSt3__124__put_character_sequenceIcNS_11char_traitsIcEEEERNS_13basic_ostreamIT_T0_EES7_PKS4_m
	leaq	L_.str12(%rip), %rsi
	movl	$3, %edx
	movq	%rax, %rdi
	callq	__ZNSt3__124__put_character_sequenceIcNS_11char_traitsIcEEEERNS_13basic_ostreamIT_T0_EES7_PKS4_m
	movq	%rax, %rdi
	movsd	-32(%rbp), %xmm0        ## 8-byte Reload
	callq	__ZNSt3__113basic_ostreamIcNS_11char_traitsIcEEElsEd
	movq	%rax, %rbx
	movq	(%rbx), %rax
	movq	-24(%rax), %rsi
	addq	%rbx, %rsi
	leaq	-24(%rbp), %r14
	movq	%r14, %rdi
	callq	__ZNKSt3__18ios_base6getlocEv
Ltmp255:
	movq	__ZNSt3__15ctypeIcE2idE@GOTPCREL(%rip), %rsi
	movq	%r14, %rdi
	callq	__ZNKSt3__16locale9use_facetERNS0_2idE
Ltmp256:
## BB#1:
	movq	(%rax), %rcx
	movq	56(%rcx), %rcx
Ltmp257:
	movl	$10, %esi
	movq	%rax, %rdi
	callq	*%rcx
	movb	%al, %r14b
Ltmp258:
## BB#2:                                ## %_ZNSt3__14endlIcNS_11char_traitsIcEEEERNS_13basic_ostreamIT_T0_EES7_.exit
	leaq	-24(%rbp), %rdi
	callq	__ZNSt3__16localeD1Ev
	movsbl	%r14b, %esi
	movq	%rbx, %rdi
	callq	__ZNSt3__113basic_ostreamIcNS_11char_traitsIcEEE3putEc
	movq	%rbx, %rdi
	callq	__ZNSt3__113basic_ostreamIcNS_11char_traitsIcEEE5flushEv
	addq	$16, %rsp
	popq	%rbx
	popq	%r14
	popq	%rbp
	retq
LBB29_3:
Ltmp259:
	movq	%rax, %rbx
	leaq	-24(%rbp), %rax
	movq	%rax, %rdi
	callq	__ZNSt3__16localeD1Ev
	movq	%rbx, %rdi
	callq	__Unwind_Resume
	.cfi_endproc
Leh_func_end29:
	.section	__TEXT,__gcc_except_tab
	.align	2
GCC_except_table29:
Lexception29:
	.byte	255                     ## @LPStart Encoding = omit
	.byte	155                     ## @TType Encoding = indirect pcrel sdata4
	.byte	41                      ## @TType base offset
	.byte	3                       ## Call site Encoding = udata4
	.byte	39                      ## Call site table length
Lset46 = Leh_func_begin29-Leh_func_begin29 ## >> Call Site 1 <<
	.long	Lset46
Lset47 = Ltmp255-Leh_func_begin29       ##   Call between Leh_func_begin29 and Ltmp255
	.long	Lset47
	.long	0                       ##     has no landing pad
	.byte	0                       ##   On action: cleanup
Lset48 = Ltmp255-Leh_func_begin29       ## >> Call Site 2 <<
	.long	Lset48
Lset49 = Ltmp258-Ltmp255                ##   Call between Ltmp255 and Ltmp258
	.long	Lset49
Lset50 = Ltmp259-Leh_func_begin29       ##     jumps to Ltmp259
	.long	Lset50
	.byte	0                       ##   On action: cleanup
Lset51 = Ltmp258-Leh_func_begin29       ## >> Call Site 3 <<
	.long	Lset51
Lset52 = Leh_func_end29-Ltmp258         ##   Call between Ltmp258 and Leh_func_end29
	.long	Lset52
	.long	0                       ##     has no landing pad
	.byte	0                       ##   On action: cleanup
	.align	2

	.section	__TEXT,__text,regular,pure_instructions
	.globl	_get_viewPortSize
	.align	4, 0x90
_get_viewPortSize:                      ## @get_viewPortSize
	.cfi_startproc
## BB#0:
	pushq	%rbp
Ltmp270:
	.cfi_def_cfa_offset 16
Ltmp271:
	.cfi_offset %rbp, -16
	movq	%rsp, %rbp
Ltmp272:
	.cfi_def_cfa_register %rbp
	movsd	_camera(%rip), %xmm0
	popq	%rbp
	retq
	.cfi_endproc

	.globl	_get_type_of_viewPortSize
	.align	4, 0x90
_get_type_of_viewPortSize:              ## @get_type_of_viewPortSize
	.cfi_startproc
## BB#0:
	pushq	%rbp
Ltmp275:
	.cfi_def_cfa_offset 16
Ltmp276:
	.cfi_offset %rbp, -16
	movq	%rsp, %rbp
Ltmp277:
	.cfi_def_cfa_register %rbp
	movq	__ZTId@GOTPCREL(%rip), %rax
	movq	8(%rax), %rax
	popq	%rbp
	retq
	.cfi_endproc

	.globl	_set_viewPortRatio
	.align	4, 0x90
_set_viewPortRatio:                     ## @set_viewPortRatio
	.cfi_startproc
	.cfi_personality 155, ___gxx_personality_v0
Leh_func_begin32:
	.cfi_lsda 16, Lexception32
## BB#0:
	pushq	%rbp
Ltmp286:
	.cfi_def_cfa_offset 16
Ltmp287:
	.cfi_offset %rbp, -16
	movq	%rsp, %rbp
Ltmp288:
	.cfi_def_cfa_register %rbp
	pushq	%r14
	pushq	%rbx
	subq	$16, %rsp
Ltmp289:
	.cfi_offset %rbx, -32
Ltmp290:
	.cfi_offset %r14, -24
	movsd	%xmm0, -32(%rbp)        ## 8-byte Spill
	movsd	%xmm0, _camera+16224(%rip)
	movq	__ZNSt3__14coutE@GOTPCREL(%rip), %rdi
	leaq	L_.str10(%rip), %rsi
	movl	$12, %edx
	callq	__ZNSt3__124__put_character_sequenceIcNS_11char_traitsIcEEEERNS_13basic_ostreamIT_T0_EES7_PKS4_m
	leaq	L_.str16(%rip), %rsi
	movl	$12, %edx
	movq	%rax, %rdi
	callq	__ZNSt3__124__put_character_sequenceIcNS_11char_traitsIcEEEERNS_13basic_ostreamIT_T0_EES7_PKS4_m
	leaq	L_.str12(%rip), %rsi
	movl	$3, %edx
	movq	%rax, %rdi
	callq	__ZNSt3__124__put_character_sequenceIcNS_11char_traitsIcEEEERNS_13basic_ostreamIT_T0_EES7_PKS4_m
	movq	%rax, %rdi
	movsd	-32(%rbp), %xmm0        ## 8-byte Reload
	callq	__ZNSt3__113basic_ostreamIcNS_11char_traitsIcEEElsEd
	movq	%rax, %rbx
	movq	(%rbx), %rax
	movq	-24(%rax), %rsi
	addq	%rbx, %rsi
	leaq	-24(%rbp), %r14
	movq	%r14, %rdi
	callq	__ZNKSt3__18ios_base6getlocEv
Ltmp278:
	movq	__ZNSt3__15ctypeIcE2idE@GOTPCREL(%rip), %rsi
	movq	%r14, %rdi
	callq	__ZNKSt3__16locale9use_facetERNS0_2idE
Ltmp279:
## BB#1:
	movq	(%rax), %rcx
	movq	56(%rcx), %rcx
Ltmp280:
	movl	$10, %esi
	movq	%rax, %rdi
	callq	*%rcx
	movb	%al, %r14b
Ltmp281:
## BB#2:                                ## %_ZNSt3__14endlIcNS_11char_traitsIcEEEERNS_13basic_ostreamIT_T0_EES7_.exit
	leaq	-24(%rbp), %rdi
	callq	__ZNSt3__16localeD1Ev
	movsbl	%r14b, %esi
	movq	%rbx, %rdi
	callq	__ZNSt3__113basic_ostreamIcNS_11char_traitsIcEEE3putEc
	movq	%rbx, %rdi
	callq	__ZNSt3__113basic_ostreamIcNS_11char_traitsIcEEE5flushEv
	addq	$16, %rsp
	popq	%rbx
	popq	%r14
	popq	%rbp
	retq
LBB32_3:
Ltmp282:
	movq	%rax, %rbx
	leaq	-24(%rbp), %rax
	movq	%rax, %rdi
	callq	__ZNSt3__16localeD1Ev
	movq	%rbx, %rdi
	callq	__Unwind_Resume
	.cfi_endproc
Leh_func_end32:
	.section	__TEXT,__gcc_except_tab
	.align	2
GCC_except_table32:
Lexception32:
	.byte	255                     ## @LPStart Encoding = omit
	.byte	155                     ## @TType Encoding = indirect pcrel sdata4
	.byte	41                      ## @TType base offset
	.byte	3                       ## Call site Encoding = udata4
	.byte	39                      ## Call site table length
Lset53 = Leh_func_begin32-Leh_func_begin32 ## >> Call Site 1 <<
	.long	Lset53
Lset54 = Ltmp278-Leh_func_begin32       ##   Call between Leh_func_begin32 and Ltmp278
	.long	Lset54
	.long	0                       ##     has no landing pad
	.byte	0                       ##   On action: cleanup
Lset55 = Ltmp278-Leh_func_begin32       ## >> Call Site 2 <<
	.long	Lset55
Lset56 = Ltmp281-Ltmp278                ##   Call between Ltmp278 and Ltmp281
	.long	Lset56
Lset57 = Ltmp282-Leh_func_begin32       ##     jumps to Ltmp282
	.long	Lset57
	.byte	0                       ##   On action: cleanup
Lset58 = Ltmp281-Leh_func_begin32       ## >> Call Site 3 <<
	.long	Lset58
Lset59 = Leh_func_end32-Ltmp281         ##   Call between Ltmp281 and Leh_func_end32
	.long	Lset59
	.long	0                       ##     has no landing pad
	.byte	0                       ##   On action: cleanup
	.align	2

	.section	__TEXT,__text,regular,pure_instructions
	.globl	_get_viewPortRatio
	.align	4, 0x90
_get_viewPortRatio:                     ## @get_viewPortRatio
	.cfi_startproc
## BB#0:
	pushq	%rbp
Ltmp293:
	.cfi_def_cfa_offset 16
Ltmp294:
	.cfi_offset %rbp, -16
	movq	%rsp, %rbp
Ltmp295:
	.cfi_def_cfa_register %rbp
	movsd	_camera+16224(%rip), %xmm0
	popq	%rbp
	retq
	.cfi_endproc

	.globl	_get_type_of_viewPortRatio
	.align	4, 0x90
_get_type_of_viewPortRatio:             ## @get_type_of_viewPortRatio
	.cfi_startproc
## BB#0:
	pushq	%rbp
Ltmp298:
	.cfi_def_cfa_offset 16
Ltmp299:
	.cfi_offset %rbp, -16
	movq	%rsp, %rbp
Ltmp300:
	.cfi_def_cfa_register %rbp
	movq	__ZTId@GOTPCREL(%rip), %rax
	movq	8(%rax), %rax
	popq	%rbp
	retq
	.cfi_endproc

	.globl	_set_numThreads
	.align	4, 0x90
_set_numThreads:                        ## @set_numThreads
	.cfi_startproc
	.cfi_personality 155, ___gxx_personality_v0
Leh_func_begin35:
	.cfi_lsda 16, Lexception35
## BB#0:
	pushq	%rbp
Ltmp309:
	.cfi_def_cfa_offset 16
Ltmp310:
	.cfi_offset %rbp, -16
	movq	%rsp, %rbp
Ltmp311:
	.cfi_def_cfa_register %rbp
	pushq	%r14
	pushq	%rbx
	subq	$16, %rsp
Ltmp312:
	.cfi_offset %rbx, -32
Ltmp313:
	.cfi_offset %r14, -24
	movl	%edi, %ebx
	movl	%ebx, _numThreads(%rip)
	movq	__ZNSt3__14coutE@GOTPCREL(%rip), %rdi
	leaq	L_.str10(%rip), %rsi
	movl	$12, %edx
	callq	__ZNSt3__124__put_character_sequenceIcNS_11char_traitsIcEEEERNS_13basic_ostreamIT_T0_EES7_PKS4_m
	leaq	L_.str17(%rip), %rsi
	movl	$10, %edx
	movq	%rax, %rdi
	callq	__ZNSt3__124__put_character_sequenceIcNS_11char_traitsIcEEEERNS_13basic_ostreamIT_T0_EES7_PKS4_m
	leaq	L_.str12(%rip), %rsi
	movl	$3, %edx
	movq	%rax, %rdi
	callq	__ZNSt3__124__put_character_sequenceIcNS_11char_traitsIcEEEERNS_13basic_ostreamIT_T0_EES7_PKS4_m
	movq	%rax, %rdi
	movl	%ebx, %esi
	callq	__ZNSt3__113basic_ostreamIcNS_11char_traitsIcEEElsEi
	movq	%rax, %rbx
	movq	(%rbx), %rax
	movq	-24(%rax), %rsi
	addq	%rbx, %rsi
	leaq	-24(%rbp), %r14
	movq	%r14, %rdi
	callq	__ZNKSt3__18ios_base6getlocEv
Ltmp301:
	movq	__ZNSt3__15ctypeIcE2idE@GOTPCREL(%rip), %rsi
	movq	%r14, %rdi
	callq	__ZNKSt3__16locale9use_facetERNS0_2idE
Ltmp302:
## BB#1:
	movq	(%rax), %rcx
	movq	56(%rcx), %rcx
Ltmp303:
	movl	$10, %esi
	movq	%rax, %rdi
	callq	*%rcx
	movb	%al, %r14b
Ltmp304:
## BB#2:                                ## %_ZNSt3__14endlIcNS_11char_traitsIcEEEERNS_13basic_ostreamIT_T0_EES7_.exit
	leaq	-24(%rbp), %rdi
	callq	__ZNSt3__16localeD1Ev
	movsbl	%r14b, %esi
	movq	%rbx, %rdi
	callq	__ZNSt3__113basic_ostreamIcNS_11char_traitsIcEEE3putEc
	movq	%rbx, %rdi
	callq	__ZNSt3__113basic_ostreamIcNS_11char_traitsIcEEE5flushEv
	addq	$16, %rsp
	popq	%rbx
	popq	%r14
	popq	%rbp
	retq
LBB35_3:
Ltmp305:
	movq	%rax, %rbx
	leaq	-24(%rbp), %rax
	movq	%rax, %rdi
	callq	__ZNSt3__16localeD1Ev
	movq	%rbx, %rdi
	callq	__Unwind_Resume
	.cfi_endproc
Leh_func_end35:
	.section	__TEXT,__gcc_except_tab
	.align	2
GCC_except_table35:
Lexception35:
	.byte	255                     ## @LPStart Encoding = omit
	.byte	155                     ## @TType Encoding = indirect pcrel sdata4
	.byte	41                      ## @TType base offset
	.byte	3                       ## Call site Encoding = udata4
	.byte	39                      ## Call site table length
Lset60 = Leh_func_begin35-Leh_func_begin35 ## >> Call Site 1 <<
	.long	Lset60
Lset61 = Ltmp301-Leh_func_begin35       ##   Call between Leh_func_begin35 and Ltmp301
	.long	Lset61
	.long	0                       ##     has no landing pad
	.byte	0                       ##   On action: cleanup
Lset62 = Ltmp301-Leh_func_begin35       ## >> Call Site 2 <<
	.long	Lset62
Lset63 = Ltmp304-Ltmp301                ##   Call between Ltmp301 and Ltmp304
	.long	Lset63
Lset64 = Ltmp305-Leh_func_begin35       ##     jumps to Ltmp305
	.long	Lset64
	.byte	0                       ##   On action: cleanup
Lset65 = Ltmp304-Leh_func_begin35       ## >> Call Site 3 <<
	.long	Lset65
Lset66 = Leh_func_end35-Ltmp304         ##   Call between Ltmp304 and Leh_func_end35
	.long	Lset66
	.long	0                       ##     has no landing pad
	.byte	0                       ##   On action: cleanup
	.align	2

	.section	__TEXT,__text,regular,pure_instructions
	.globl	_get_numThreads
	.align	4, 0x90
_get_numThreads:                        ## @get_numThreads
	.cfi_startproc
## BB#0:
	pushq	%rbp
Ltmp316:
	.cfi_def_cfa_offset 16
Ltmp317:
	.cfi_offset %rbp, -16
	movq	%rsp, %rbp
Ltmp318:
	.cfi_def_cfa_register %rbp
	movl	_numThreads(%rip), %eax
	popq	%rbp
	retq
	.cfi_endproc

	.globl	_get_type_of_numThreads
	.align	4, 0x90
_get_type_of_numThreads:                ## @get_type_of_numThreads
	.cfi_startproc
## BB#0:
	pushq	%rbp
Ltmp321:
	.cfi_def_cfa_offset 16
Ltmp322:
	.cfi_offset %rbp, -16
	movq	%rsp, %rbp
Ltmp323:
	.cfi_def_cfa_register %rbp
	movq	__ZTIi@GOTPCREL(%rip), %rax
	movq	8(%rax), %rax
	popq	%rbp
	retq
	.cfi_endproc

	.globl	_set_maxDepth
	.align	4, 0x90
_set_maxDepth:                          ## @set_maxDepth
	.cfi_startproc
	.cfi_personality 155, ___gxx_personality_v0
Leh_func_begin38:
	.cfi_lsda 16, Lexception38
## BB#0:
	pushq	%rbp
Ltmp332:
	.cfi_def_cfa_offset 16
Ltmp333:
	.cfi_offset %rbp, -16
	movq	%rsp, %rbp
Ltmp334:
	.cfi_def_cfa_register %rbp
	pushq	%r14
	pushq	%rbx
	subq	$16, %rsp
Ltmp335:
	.cfi_offset %rbx, -32
Ltmp336:
	.cfi_offset %r14, -24
	movl	%edi, %ebx
	movl	%ebx, _maxDepth(%rip)
	movq	__ZNSt3__14coutE@GOTPCREL(%rip), %rdi
	leaq	L_.str10(%rip), %rsi
	movl	$12, %edx
	callq	__ZNSt3__124__put_character_sequenceIcNS_11char_traitsIcEEEERNS_13basic_ostreamIT_T0_EES7_PKS4_m
	leaq	L_.str18(%rip), %rsi
	movl	$8, %edx
	movq	%rax, %rdi
	callq	__ZNSt3__124__put_character_sequenceIcNS_11char_traitsIcEEEERNS_13basic_ostreamIT_T0_EES7_PKS4_m
	leaq	L_.str12(%rip), %rsi
	movl	$3, %edx
	movq	%rax, %rdi
	callq	__ZNSt3__124__put_character_sequenceIcNS_11char_traitsIcEEEERNS_13basic_ostreamIT_T0_EES7_PKS4_m
	movq	%rax, %rdi
	movl	%ebx, %esi
	callq	__ZNSt3__113basic_ostreamIcNS_11char_traitsIcEEElsEi
	movq	%rax, %rbx
	movq	(%rbx), %rax
	movq	-24(%rax), %rsi
	addq	%rbx, %rsi
	leaq	-24(%rbp), %r14
	movq	%r14, %rdi
	callq	__ZNKSt3__18ios_base6getlocEv
Ltmp324:
	movq	__ZNSt3__15ctypeIcE2idE@GOTPCREL(%rip), %rsi
	movq	%r14, %rdi
	callq	__ZNKSt3__16locale9use_facetERNS0_2idE
Ltmp325:
## BB#1:
	movq	(%rax), %rcx
	movq	56(%rcx), %rcx
Ltmp326:
	movl	$10, %esi
	movq	%rax, %rdi
	callq	*%rcx
	movb	%al, %r14b
Ltmp327:
## BB#2:                                ## %_ZNSt3__14endlIcNS_11char_traitsIcEEEERNS_13basic_ostreamIT_T0_EES7_.exit
	leaq	-24(%rbp), %rdi
	callq	__ZNSt3__16localeD1Ev
	movsbl	%r14b, %esi
	movq	%rbx, %rdi
	callq	__ZNSt3__113basic_ostreamIcNS_11char_traitsIcEEE3putEc
	movq	%rbx, %rdi
	callq	__ZNSt3__113basic_ostreamIcNS_11char_traitsIcEEE5flushEv
	addq	$16, %rsp
	popq	%rbx
	popq	%r14
	popq	%rbp
	retq
LBB38_3:
Ltmp328:
	movq	%rax, %rbx
	leaq	-24(%rbp), %rax
	movq	%rax, %rdi
	callq	__ZNSt3__16localeD1Ev
	movq	%rbx, %rdi
	callq	__Unwind_Resume
	.cfi_endproc
Leh_func_end38:
	.section	__TEXT,__gcc_except_tab
	.align	2
GCC_except_table38:
Lexception38:
	.byte	255                     ## @LPStart Encoding = omit
	.byte	155                     ## @TType Encoding = indirect pcrel sdata4
	.byte	41                      ## @TType base offset
	.byte	3                       ## Call site Encoding = udata4
	.byte	39                      ## Call site table length
Lset67 = Leh_func_begin38-Leh_func_begin38 ## >> Call Site 1 <<
	.long	Lset67
Lset68 = Ltmp324-Leh_func_begin38       ##   Call between Leh_func_begin38 and Ltmp324
	.long	Lset68
	.long	0                       ##     has no landing pad
	.byte	0                       ##   On action: cleanup
Lset69 = Ltmp324-Leh_func_begin38       ## >> Call Site 2 <<
	.long	Lset69
Lset70 = Ltmp327-Ltmp324                ##   Call between Ltmp324 and Ltmp327
	.long	Lset70
Lset71 = Ltmp328-Leh_func_begin38       ##     jumps to Ltmp328
	.long	Lset71
	.byte	0                       ##   On action: cleanup
Lset72 = Ltmp327-Leh_func_begin38       ## >> Call Site 3 <<
	.long	Lset72
Lset73 = Leh_func_end38-Ltmp327         ##   Call between Ltmp327 and Leh_func_end38
	.long	Lset73
	.long	0                       ##     has no landing pad
	.byte	0                       ##   On action: cleanup
	.align	2

	.section	__TEXT,__text,regular,pure_instructions
	.globl	_get_maxDepth
	.align	4, 0x90
_get_maxDepth:                          ## @get_maxDepth
	.cfi_startproc
## BB#0:
	pushq	%rbp
Ltmp339:
	.cfi_def_cfa_offset 16
Ltmp340:
	.cfi_offset %rbp, -16
	movq	%rsp, %rbp
Ltmp341:
	.cfi_def_cfa_register %rbp
	movl	_maxDepth(%rip), %eax
	popq	%rbp
	retq
	.cfi_endproc

	.globl	_get_type_of_maxDepth
	.align	4, 0x90
_get_type_of_maxDepth:                  ## @get_type_of_maxDepth
	.cfi_startproc
## BB#0:
	pushq	%rbp
Ltmp344:
	.cfi_def_cfa_offset 16
Ltmp345:
	.cfi_offset %rbp, -16
	movq	%rsp, %rbp
Ltmp346:
	.cfi_def_cfa_register %rbp
	movq	__ZTIi@GOTPCREL(%rip), %rax
	movq	8(%rax), %rax
	popq	%rbp
	retq
	.cfi_endproc

	.globl	_set_specular_index
	.align	4, 0x90
_set_specular_index:                    ## @set_specular_index
	.cfi_startproc
	.cfi_personality 155, ___gxx_personality_v0
Leh_func_begin41:
	.cfi_lsda 16, Lexception41
## BB#0:
	pushq	%rbp
Ltmp355:
	.cfi_def_cfa_offset 16
Ltmp356:
	.cfi_offset %rbp, -16
	movq	%rsp, %rbp
Ltmp357:
	.cfi_def_cfa_register %rbp
	pushq	%r14
	pushq	%rbx
	subq	$16, %rsp
Ltmp358:
	.cfi_offset %rbx, -32
Ltmp359:
	.cfi_offset %r14, -24
	movl	%edi, %ebx
	movl	%ebx, _specular_index(%rip)
	movq	__ZNSt3__14coutE@GOTPCREL(%rip), %rdi
	leaq	L_.str10(%rip), %rsi
	movl	$12, %edx
	callq	__ZNSt3__124__put_character_sequenceIcNS_11char_traitsIcEEEERNS_13basic_ostreamIT_T0_EES7_PKS4_m
	leaq	L_.str19(%rip), %rsi
	movl	$14, %edx
	movq	%rax, %rdi
	callq	__ZNSt3__124__put_character_sequenceIcNS_11char_traitsIcEEEERNS_13basic_ostreamIT_T0_EES7_PKS4_m
	leaq	L_.str12(%rip), %rsi
	movl	$3, %edx
	movq	%rax, %rdi
	callq	__ZNSt3__124__put_character_sequenceIcNS_11char_traitsIcEEEERNS_13basic_ostreamIT_T0_EES7_PKS4_m
	movq	%rax, %rdi
	movl	%ebx, %esi
	callq	__ZNSt3__113basic_ostreamIcNS_11char_traitsIcEEElsEi
	movq	%rax, %rbx
	movq	(%rbx), %rax
	movq	-24(%rax), %rsi
	addq	%rbx, %rsi
	leaq	-24(%rbp), %r14
	movq	%r14, %rdi
	callq	__ZNKSt3__18ios_base6getlocEv
Ltmp347:
	movq	__ZNSt3__15ctypeIcE2idE@GOTPCREL(%rip), %rsi
	movq	%r14, %rdi
	callq	__ZNKSt3__16locale9use_facetERNS0_2idE
Ltmp348:
## BB#1:
	movq	(%rax), %rcx
	movq	56(%rcx), %rcx
Ltmp349:
	movl	$10, %esi
	movq	%rax, %rdi
	callq	*%rcx
	movb	%al, %r14b
Ltmp350:
## BB#2:                                ## %_ZNSt3__14endlIcNS_11char_traitsIcEEEERNS_13basic_ostreamIT_T0_EES7_.exit
	leaq	-24(%rbp), %rdi
	callq	__ZNSt3__16localeD1Ev
	movsbl	%r14b, %esi
	movq	%rbx, %rdi
	callq	__ZNSt3__113basic_ostreamIcNS_11char_traitsIcEEE3putEc
	movq	%rbx, %rdi
	callq	__ZNSt3__113basic_ostreamIcNS_11char_traitsIcEEE5flushEv
	addq	$16, %rsp
	popq	%rbx
	popq	%r14
	popq	%rbp
	retq
LBB41_3:
Ltmp351:
	movq	%rax, %rbx
	leaq	-24(%rbp), %rax
	movq	%rax, %rdi
	callq	__ZNSt3__16localeD1Ev
	movq	%rbx, %rdi
	callq	__Unwind_Resume
	.cfi_endproc
Leh_func_end41:
	.section	__TEXT,__gcc_except_tab
	.align	2
GCC_except_table41:
Lexception41:
	.byte	255                     ## @LPStart Encoding = omit
	.byte	155                     ## @TType Encoding = indirect pcrel sdata4
	.byte	41                      ## @TType base offset
	.byte	3                       ## Call site Encoding = udata4
	.byte	39                      ## Call site table length
Lset74 = Leh_func_begin41-Leh_func_begin41 ## >> Call Site 1 <<
	.long	Lset74
Lset75 = Ltmp347-Leh_func_begin41       ##   Call between Leh_func_begin41 and Ltmp347
	.long	Lset75
	.long	0                       ##     has no landing pad
	.byte	0                       ##   On action: cleanup
Lset76 = Ltmp347-Leh_func_begin41       ## >> Call Site 2 <<
	.long	Lset76
Lset77 = Ltmp350-Ltmp347                ##   Call between Ltmp347 and Ltmp350
	.long	Lset77
Lset78 = Ltmp351-Leh_func_begin41       ##     jumps to Ltmp351
	.long	Lset78
	.byte	0                       ##   On action: cleanup
Lset79 = Ltmp350-Leh_func_begin41       ## >> Call Site 3 <<
	.long	Lset79
Lset80 = Leh_func_end41-Ltmp350         ##   Call between Ltmp350 and Leh_func_end41
	.long	Lset80
	.long	0                       ##     has no landing pad
	.byte	0                       ##   On action: cleanup
	.align	2

	.section	__TEXT,__text,regular,pure_instructions
	.globl	_get_specular_index
	.align	4, 0x90
_get_specular_index:                    ## @get_specular_index
	.cfi_startproc
## BB#0:
	pushq	%rbp
Ltmp362:
	.cfi_def_cfa_offset 16
Ltmp363:
	.cfi_offset %rbp, -16
	movq	%rsp, %rbp
Ltmp364:
	.cfi_def_cfa_register %rbp
	movl	_specular_index(%rip), %eax
	popq	%rbp
	retq
	.cfi_endproc

	.globl	_get_type_of_specular_index
	.align	4, 0x90
_get_type_of_specular_index:            ## @get_type_of_specular_index
	.cfi_startproc
## BB#0:
	pushq	%rbp
Ltmp367:
	.cfi_def_cfa_offset 16
Ltmp368:
	.cfi_offset %rbp, -16
	movq	%rsp, %rbp
Ltmp369:
	.cfi_def_cfa_register %rbp
	movq	__ZTIi@GOTPCREL(%rip), %rax
	movq	8(%rax), %rax
	popq	%rbp
	retq
	.cfi_endproc

	.globl	_set_ambient_strength
	.align	4, 0x90
_set_ambient_strength:                  ## @set_ambient_strength
	.cfi_startproc
	.cfi_personality 155, ___gxx_personality_v0
Leh_func_begin44:
	.cfi_lsda 16, Lexception44
## BB#0:
	pushq	%rbp
Ltmp378:
	.cfi_def_cfa_offset 16
Ltmp379:
	.cfi_offset %rbp, -16
	movq	%rsp, %rbp
Ltmp380:
	.cfi_def_cfa_register %rbp
	pushq	%r14
	pushq	%rbx
	subq	$16, %rsp
Ltmp381:
	.cfi_offset %rbx, -32
Ltmp382:
	.cfi_offset %r14, -24
	movsd	%xmm0, -32(%rbp)        ## 8-byte Spill
	movsd	%xmm0, _ambient_strength(%rip)
	movq	__ZNSt3__14coutE@GOTPCREL(%rip), %rdi
	leaq	L_.str10(%rip), %rsi
	movl	$12, %edx
	callq	__ZNSt3__124__put_character_sequenceIcNS_11char_traitsIcEEEERNS_13basic_ostreamIT_T0_EES7_PKS4_m
	leaq	L_.str20(%rip), %rsi
	movl	$16, %edx
	movq	%rax, %rdi
	callq	__ZNSt3__124__put_character_sequenceIcNS_11char_traitsIcEEEERNS_13basic_ostreamIT_T0_EES7_PKS4_m
	leaq	L_.str12(%rip), %rsi
	movl	$3, %edx
	movq	%rax, %rdi
	callq	__ZNSt3__124__put_character_sequenceIcNS_11char_traitsIcEEEERNS_13basic_ostreamIT_T0_EES7_PKS4_m
	movq	%rax, %rdi
	movsd	-32(%rbp), %xmm0        ## 8-byte Reload
	callq	__ZNSt3__113basic_ostreamIcNS_11char_traitsIcEEElsEd
	movq	%rax, %rbx
	movq	(%rbx), %rax
	movq	-24(%rax), %rsi
	addq	%rbx, %rsi
	leaq	-24(%rbp), %r14
	movq	%r14, %rdi
	callq	__ZNKSt3__18ios_base6getlocEv
Ltmp370:
	movq	__ZNSt3__15ctypeIcE2idE@GOTPCREL(%rip), %rsi
	movq	%r14, %rdi
	callq	__ZNKSt3__16locale9use_facetERNS0_2idE
Ltmp371:
## BB#1:
	movq	(%rax), %rcx
	movq	56(%rcx), %rcx
Ltmp372:
	movl	$10, %esi
	movq	%rax, %rdi
	callq	*%rcx
	movb	%al, %r14b
Ltmp373:
## BB#2:                                ## %_ZNSt3__14endlIcNS_11char_traitsIcEEEERNS_13basic_ostreamIT_T0_EES7_.exit
	leaq	-24(%rbp), %rdi
	callq	__ZNSt3__16localeD1Ev
	movsbl	%r14b, %esi
	movq	%rbx, %rdi
	callq	__ZNSt3__113basic_ostreamIcNS_11char_traitsIcEEE3putEc
	movq	%rbx, %rdi
	callq	__ZNSt3__113basic_ostreamIcNS_11char_traitsIcEEE5flushEv
	addq	$16, %rsp
	popq	%rbx
	popq	%r14
	popq	%rbp
	retq
LBB44_3:
Ltmp374:
	movq	%rax, %rbx
	leaq	-24(%rbp), %rax
	movq	%rax, %rdi
	callq	__ZNSt3__16localeD1Ev
	movq	%rbx, %rdi
	callq	__Unwind_Resume
	.cfi_endproc
Leh_func_end44:
	.section	__TEXT,__gcc_except_tab
	.align	2
GCC_except_table44:
Lexception44:
	.byte	255                     ## @LPStart Encoding = omit
	.byte	155                     ## @TType Encoding = indirect pcrel sdata4
	.byte	41                      ## @TType base offset
	.byte	3                       ## Call site Encoding = udata4
	.byte	39                      ## Call site table length
Lset81 = Leh_func_begin44-Leh_func_begin44 ## >> Call Site 1 <<
	.long	Lset81
Lset82 = Ltmp370-Leh_func_begin44       ##   Call between Leh_func_begin44 and Ltmp370
	.long	Lset82
	.long	0                       ##     has no landing pad
	.byte	0                       ##   On action: cleanup
Lset83 = Ltmp370-Leh_func_begin44       ## >> Call Site 2 <<
	.long	Lset83
Lset84 = Ltmp373-Ltmp370                ##   Call between Ltmp370 and Ltmp373
	.long	Lset84
Lset85 = Ltmp374-Leh_func_begin44       ##     jumps to Ltmp374
	.long	Lset85
	.byte	0                       ##   On action: cleanup
Lset86 = Ltmp373-Leh_func_begin44       ## >> Call Site 3 <<
	.long	Lset86
Lset87 = Leh_func_end44-Ltmp373         ##   Call between Ltmp373 and Leh_func_end44
	.long	Lset87
	.long	0                       ##     has no landing pad
	.byte	0                       ##   On action: cleanup
	.align	2

	.section	__TEXT,__text,regular,pure_instructions
	.globl	_get_ambient_strength
	.align	4, 0x90
_get_ambient_strength:                  ## @get_ambient_strength
	.cfi_startproc
## BB#0:
	pushq	%rbp
Ltmp385:
	.cfi_def_cfa_offset 16
Ltmp386:
	.cfi_offset %rbp, -16
	movq	%rsp, %rbp
Ltmp387:
	.cfi_def_cfa_register %rbp
	movsd	_ambient_strength(%rip), %xmm0
	popq	%rbp
	retq
	.cfi_endproc

	.globl	_get_type_of_ambient_strength
	.align	4, 0x90
_get_type_of_ambient_strength:          ## @get_type_of_ambient_strength
	.cfi_startproc
## BB#0:
	pushq	%rbp
Ltmp390:
	.cfi_def_cfa_offset 16
Ltmp391:
	.cfi_offset %rbp, -16
	movq	%rsp, %rbp
Ltmp392:
	.cfi_def_cfa_register %rbp
	movq	__ZTId@GOTPCREL(%rip), %rax
	movq	8(%rax), %rax
	popq	%rbp
	retq
	.cfi_endproc

	.globl	_set_super_sample_threshold
	.align	4, 0x90
_set_super_sample_threshold:            ## @set_super_sample_threshold
	.cfi_startproc
	.cfi_personality 155, ___gxx_personality_v0
Leh_func_begin47:
	.cfi_lsda 16, Lexception47
## BB#0:
	pushq	%rbp
Ltmp401:
	.cfi_def_cfa_offset 16
Ltmp402:
	.cfi_offset %rbp, -16
	movq	%rsp, %rbp
Ltmp403:
	.cfi_def_cfa_register %rbp
	pushq	%r14
	pushq	%rbx
	subq	$16, %rsp
Ltmp404:
	.cfi_offset %rbx, -32
Ltmp405:
	.cfi_offset %r14, -24
	movsd	%xmm0, -32(%rbp)        ## 8-byte Spill
	movsd	%xmm0, _super_sample_threshold(%rip)
	movq	__ZNSt3__14coutE@GOTPCREL(%rip), %rdi
	leaq	L_.str10(%rip), %rsi
	movl	$12, %edx
	callq	__ZNSt3__124__put_character_sequenceIcNS_11char_traitsIcEEEERNS_13basic_ostreamIT_T0_EES7_PKS4_m
	leaq	L_.str21(%rip), %rsi
	movl	$22, %edx
	movq	%rax, %rdi
	callq	__ZNSt3__124__put_character_sequenceIcNS_11char_traitsIcEEEERNS_13basic_ostreamIT_T0_EES7_PKS4_m
	leaq	L_.str12(%rip), %rsi
	movl	$3, %edx
	movq	%rax, %rdi
	callq	__ZNSt3__124__put_character_sequenceIcNS_11char_traitsIcEEEERNS_13basic_ostreamIT_T0_EES7_PKS4_m
	movq	%rax, %rdi
	movsd	-32(%rbp), %xmm0        ## 8-byte Reload
	callq	__ZNSt3__113basic_ostreamIcNS_11char_traitsIcEEElsEd
	movq	%rax, %rbx
	movq	(%rbx), %rax
	movq	-24(%rax), %rsi
	addq	%rbx, %rsi
	leaq	-24(%rbp), %r14
	movq	%r14, %rdi
	callq	__ZNKSt3__18ios_base6getlocEv
Ltmp393:
	movq	__ZNSt3__15ctypeIcE2idE@GOTPCREL(%rip), %rsi
	movq	%r14, %rdi
	callq	__ZNKSt3__16locale9use_facetERNS0_2idE
Ltmp394:
## BB#1:
	movq	(%rax), %rcx
	movq	56(%rcx), %rcx
Ltmp395:
	movl	$10, %esi
	movq	%rax, %rdi
	callq	*%rcx
	movb	%al, %r14b
Ltmp396:
## BB#2:                                ## %_ZNSt3__14endlIcNS_11char_traitsIcEEEERNS_13basic_ostreamIT_T0_EES7_.exit
	leaq	-24(%rbp), %rdi
	callq	__ZNSt3__16localeD1Ev
	movsbl	%r14b, %esi
	movq	%rbx, %rdi
	callq	__ZNSt3__113basic_ostreamIcNS_11char_traitsIcEEE3putEc
	movq	%rbx, %rdi
	callq	__ZNSt3__113basic_ostreamIcNS_11char_traitsIcEEE5flushEv
	addq	$16, %rsp
	popq	%rbx
	popq	%r14
	popq	%rbp
	retq
LBB47_3:
Ltmp397:
	movq	%rax, %rbx
	leaq	-24(%rbp), %rax
	movq	%rax, %rdi
	callq	__ZNSt3__16localeD1Ev
	movq	%rbx, %rdi
	callq	__Unwind_Resume
	.cfi_endproc
Leh_func_end47:
	.section	__TEXT,__gcc_except_tab
	.align	2
GCC_except_table47:
Lexception47:
	.byte	255                     ## @LPStart Encoding = omit
	.byte	155                     ## @TType Encoding = indirect pcrel sdata4
	.byte	41                      ## @TType base offset
	.byte	3                       ## Call site Encoding = udata4
	.byte	39                      ## Call site table length
Lset88 = Leh_func_begin47-Leh_func_begin47 ## >> Call Site 1 <<
	.long	Lset88
Lset89 = Ltmp393-Leh_func_begin47       ##   Call between Leh_func_begin47 and Ltmp393
	.long	Lset89
	.long	0                       ##     has no landing pad
	.byte	0                       ##   On action: cleanup
Lset90 = Ltmp393-Leh_func_begin47       ## >> Call Site 2 <<
	.long	Lset90
Lset91 = Ltmp396-Ltmp393                ##   Call between Ltmp393 and Ltmp396
	.long	Lset91
Lset92 = Ltmp397-Leh_func_begin47       ##     jumps to Ltmp397
	.long	Lset92
	.byte	0                       ##   On action: cleanup
Lset93 = Ltmp396-Leh_func_begin47       ## >> Call Site 3 <<
	.long	Lset93
Lset94 = Leh_func_end47-Ltmp396         ##   Call between Ltmp396 and Leh_func_end47
	.long	Lset94
	.long	0                       ##     has no landing pad
	.byte	0                       ##   On action: cleanup
	.align	2

	.section	__TEXT,__text,regular,pure_instructions
	.globl	_get_super_sample_threshold
	.align	4, 0x90
_get_super_sample_threshold:            ## @get_super_sample_threshold
	.cfi_startproc
## BB#0:
	pushq	%rbp
Ltmp408:
	.cfi_def_cfa_offset 16
Ltmp409:
	.cfi_offset %rbp, -16
	movq	%rsp, %rbp
Ltmp410:
	.cfi_def_cfa_register %rbp
	movsd	_super_sample_threshold(%rip), %xmm0
	popq	%rbp
	retq
	.cfi_endproc

	.globl	_get_type_of_super_sample_threshold
	.align	4, 0x90
_get_type_of_super_sample_threshold:    ## @get_type_of_super_sample_threshold
	.cfi_startproc
## BB#0:
	pushq	%rbp
Ltmp413:
	.cfi_def_cfa_offset 16
Ltmp414:
	.cfi_offset %rbp, -16
	movq	%rsp, %rbp
Ltmp415:
	.cfi_def_cfa_register %rbp
	movq	__ZTId@GOTPCREL(%rip), %rax
	movq	8(%rax), %rax
	popq	%rbp
	retq
	.cfi_endproc

	.globl	_set_sample_times
	.align	4, 0x90
_set_sample_times:                      ## @set_sample_times
	.cfi_startproc
	.cfi_personality 155, ___gxx_personality_v0
Leh_func_begin50:
	.cfi_lsda 16, Lexception50
## BB#0:
	pushq	%rbp
Ltmp424:
	.cfi_def_cfa_offset 16
Ltmp425:
	.cfi_offset %rbp, -16
	movq	%rsp, %rbp
Ltmp426:
	.cfi_def_cfa_register %rbp
	pushq	%r14
	pushq	%rbx
	subq	$16, %rsp
Ltmp427:
	.cfi_offset %rbx, -32
Ltmp428:
	.cfi_offset %r14, -24
	movl	%edi, %ebx
	movl	%ebx, _sample_times(%rip)
	movq	__ZNSt3__14coutE@GOTPCREL(%rip), %rdi
	leaq	L_.str10(%rip), %rsi
	movl	$12, %edx
	callq	__ZNSt3__124__put_character_sequenceIcNS_11char_traitsIcEEEERNS_13basic_ostreamIT_T0_EES7_PKS4_m
	leaq	L_.str22(%rip), %rsi
	movl	$12, %edx
	movq	%rax, %rdi
	callq	__ZNSt3__124__put_character_sequenceIcNS_11char_traitsIcEEEERNS_13basic_ostreamIT_T0_EES7_PKS4_m
	leaq	L_.str12(%rip), %rsi
	movl	$3, %edx
	movq	%rax, %rdi
	callq	__ZNSt3__124__put_character_sequenceIcNS_11char_traitsIcEEEERNS_13basic_ostreamIT_T0_EES7_PKS4_m
	movq	%rax, %rdi
	movl	%ebx, %esi
	callq	__ZNSt3__113basic_ostreamIcNS_11char_traitsIcEEElsEi
	movq	%rax, %rbx
	movq	(%rbx), %rax
	movq	-24(%rax), %rsi
	addq	%rbx, %rsi
	leaq	-24(%rbp), %r14
	movq	%r14, %rdi
	callq	__ZNKSt3__18ios_base6getlocEv
Ltmp416:
	movq	__ZNSt3__15ctypeIcE2idE@GOTPCREL(%rip), %rsi
	movq	%r14, %rdi
	callq	__ZNKSt3__16locale9use_facetERNS0_2idE
Ltmp417:
## BB#1:
	movq	(%rax), %rcx
	movq	56(%rcx), %rcx
Ltmp418:
	movl	$10, %esi
	movq	%rax, %rdi
	callq	*%rcx
	movb	%al, %r14b
Ltmp419:
## BB#2:                                ## %_ZNSt3__14endlIcNS_11char_traitsIcEEEERNS_13basic_ostreamIT_T0_EES7_.exit
	leaq	-24(%rbp), %rdi
	callq	__ZNSt3__16localeD1Ev
	movsbl	%r14b, %esi
	movq	%rbx, %rdi
	callq	__ZNSt3__113basic_ostreamIcNS_11char_traitsIcEEE3putEc
	movq	%rbx, %rdi
	callq	__ZNSt3__113basic_ostreamIcNS_11char_traitsIcEEE5flushEv
	addq	$16, %rsp
	popq	%rbx
	popq	%r14
	popq	%rbp
	retq
LBB50_3:
Ltmp420:
	movq	%rax, %rbx
	leaq	-24(%rbp), %rax
	movq	%rax, %rdi
	callq	__ZNSt3__16localeD1Ev
	movq	%rbx, %rdi
	callq	__Unwind_Resume
	.cfi_endproc
Leh_func_end50:
	.section	__TEXT,__gcc_except_tab
	.align	2
GCC_except_table50:
Lexception50:
	.byte	255                     ## @LPStart Encoding = omit
	.byte	155                     ## @TType Encoding = indirect pcrel sdata4
	.byte	41                      ## @TType base offset
	.byte	3                       ## Call site Encoding = udata4
	.byte	39                      ## Call site table length
Lset95 = Leh_func_begin50-Leh_func_begin50 ## >> Call Site 1 <<
	.long	Lset95
Lset96 = Ltmp416-Leh_func_begin50       ##   Call between Leh_func_begin50 and Ltmp416
	.long	Lset96
	.long	0                       ##     has no landing pad
	.byte	0                       ##   On action: cleanup
Lset97 = Ltmp416-Leh_func_begin50       ## >> Call Site 2 <<
	.long	Lset97
Lset98 = Ltmp419-Ltmp416                ##   Call between Ltmp416 and Ltmp419
	.long	Lset98
Lset99 = Ltmp420-Leh_func_begin50       ##     jumps to Ltmp420
	.long	Lset99
	.byte	0                       ##   On action: cleanup
Lset100 = Ltmp419-Leh_func_begin50      ## >> Call Site 3 <<
	.long	Lset100
Lset101 = Leh_func_end50-Ltmp419        ##   Call between Ltmp419 and Leh_func_end50
	.long	Lset101
	.long	0                       ##     has no landing pad
	.byte	0                       ##   On action: cleanup
	.align	2

	.section	__TEXT,__text,regular,pure_instructions
	.globl	_get_sample_times
	.align	4, 0x90
_get_sample_times:                      ## @get_sample_times
	.cfi_startproc
## BB#0:
	pushq	%rbp
Ltmp431:
	.cfi_def_cfa_offset 16
Ltmp432:
	.cfi_offset %rbp, -16
	movq	%rsp, %rbp
Ltmp433:
	.cfi_def_cfa_register %rbp
	movl	_sample_times(%rip), %eax
	popq	%rbp
	retq
	.cfi_endproc

	.globl	_get_type_of_sample_times
	.align	4, 0x90
_get_type_of_sample_times:              ## @get_type_of_sample_times
	.cfi_startproc
## BB#0:
	pushq	%rbp
Ltmp436:
	.cfi_def_cfa_offset 16
Ltmp437:
	.cfi_offset %rbp, -16
	movq	%rsp, %rbp
Ltmp438:
	.cfi_def_cfa_register %rbp
	movq	__ZTIi@GOTPCREL(%rip), %rax
	movq	8(%rax), %rax
	popq	%rbp
	retq
	.cfi_endproc

	.globl	_set_color_gamma
	.align	4, 0x90
_set_color_gamma:                       ## @set_color_gamma
	.cfi_startproc
	.cfi_personality 155, ___gxx_personality_v0
Leh_func_begin53:
	.cfi_lsda 16, Lexception53
## BB#0:
	pushq	%rbp
Ltmp447:
	.cfi_def_cfa_offset 16
Ltmp448:
	.cfi_offset %rbp, -16
	movq	%rsp, %rbp
Ltmp449:
	.cfi_def_cfa_register %rbp
	pushq	%r14
	pushq	%rbx
	subq	$16, %rsp
Ltmp450:
	.cfi_offset %rbx, -32
Ltmp451:
	.cfi_offset %r14, -24
	movsd	%xmm0, -32(%rbp)        ## 8-byte Spill
	movsd	%xmm0, _color_gamma(%rip)
	movq	__ZNSt3__14coutE@GOTPCREL(%rip), %rdi
	leaq	L_.str10(%rip), %rsi
	movl	$12, %edx
	callq	__ZNSt3__124__put_character_sequenceIcNS_11char_traitsIcEEEERNS_13basic_ostreamIT_T0_EES7_PKS4_m
	leaq	L_.str23(%rip), %rsi
	movl	$11, %edx
	movq	%rax, %rdi
	callq	__ZNSt3__124__put_character_sequenceIcNS_11char_traitsIcEEEERNS_13basic_ostreamIT_T0_EES7_PKS4_m
	leaq	L_.str12(%rip), %rsi
	movl	$3, %edx
	movq	%rax, %rdi
	callq	__ZNSt3__124__put_character_sequenceIcNS_11char_traitsIcEEEERNS_13basic_ostreamIT_T0_EES7_PKS4_m
	movq	%rax, %rdi
	movsd	-32(%rbp), %xmm0        ## 8-byte Reload
	callq	__ZNSt3__113basic_ostreamIcNS_11char_traitsIcEEElsEd
	movq	%rax, %rbx
	movq	(%rbx), %rax
	movq	-24(%rax), %rsi
	addq	%rbx, %rsi
	leaq	-24(%rbp), %r14
	movq	%r14, %rdi
	callq	__ZNKSt3__18ios_base6getlocEv
Ltmp439:
	movq	__ZNSt3__15ctypeIcE2idE@GOTPCREL(%rip), %rsi
	movq	%r14, %rdi
	callq	__ZNKSt3__16locale9use_facetERNS0_2idE
Ltmp440:
## BB#1:
	movq	(%rax), %rcx
	movq	56(%rcx), %rcx
Ltmp441:
	movl	$10, %esi
	movq	%rax, %rdi
	callq	*%rcx
	movb	%al, %r14b
Ltmp442:
## BB#2:                                ## %_ZNSt3__14endlIcNS_11char_traitsIcEEEERNS_13basic_ostreamIT_T0_EES7_.exit
	leaq	-24(%rbp), %rdi
	callq	__ZNSt3__16localeD1Ev
	movsbl	%r14b, %esi
	movq	%rbx, %rdi
	callq	__ZNSt3__113basic_ostreamIcNS_11char_traitsIcEEE3putEc
	movq	%rbx, %rdi
	callq	__ZNSt3__113basic_ostreamIcNS_11char_traitsIcEEE5flushEv
	addq	$16, %rsp
	popq	%rbx
	popq	%r14
	popq	%rbp
	retq
LBB53_3:
Ltmp443:
	movq	%rax, %rbx
	leaq	-24(%rbp), %rax
	movq	%rax, %rdi
	callq	__ZNSt3__16localeD1Ev
	movq	%rbx, %rdi
	callq	__Unwind_Resume
	.cfi_endproc
Leh_func_end53:
	.section	__TEXT,__gcc_except_tab
	.align	2
GCC_except_table53:
Lexception53:
	.byte	255                     ## @LPStart Encoding = omit
	.byte	155                     ## @TType Encoding = indirect pcrel sdata4
	.byte	41                      ## @TType base offset
	.byte	3                       ## Call site Encoding = udata4
	.byte	39                      ## Call site table length
Lset102 = Leh_func_begin53-Leh_func_begin53 ## >> Call Site 1 <<
	.long	Lset102
Lset103 = Ltmp439-Leh_func_begin53      ##   Call between Leh_func_begin53 and Ltmp439
	.long	Lset103
	.long	0                       ##     has no landing pad
	.byte	0                       ##   On action: cleanup
Lset104 = Ltmp439-Leh_func_begin53      ## >> Call Site 2 <<
	.long	Lset104
Lset105 = Ltmp442-Ltmp439               ##   Call between Ltmp439 and Ltmp442
	.long	Lset105
Lset106 = Ltmp443-Leh_func_begin53      ##     jumps to Ltmp443
	.long	Lset106
	.byte	0                       ##   On action: cleanup
Lset107 = Ltmp442-Leh_func_begin53      ## >> Call Site 3 <<
	.long	Lset107
Lset108 = Leh_func_end53-Ltmp442        ##   Call between Ltmp442 and Leh_func_end53
	.long	Lset108
	.long	0                       ##     has no landing pad
	.byte	0                       ##   On action: cleanup
	.align	2

	.section	__TEXT,__text,regular,pure_instructions
	.globl	_get_color_gamma
	.align	4, 0x90
_get_color_gamma:                       ## @get_color_gamma
	.cfi_startproc
## BB#0:
	pushq	%rbp
Ltmp454:
	.cfi_def_cfa_offset 16
Ltmp455:
	.cfi_offset %rbp, -16
	movq	%rsp, %rbp
Ltmp456:
	.cfi_def_cfa_register %rbp
	movsd	_color_gamma(%rip), %xmm0
	popq	%rbp
	retq
	.cfi_endproc

	.globl	_get_type_of_color_gamma
	.align	4, 0x90
_get_type_of_color_gamma:               ## @get_type_of_color_gamma
	.cfi_startproc
## BB#0:
	pushq	%rbp
Ltmp459:
	.cfi_def_cfa_offset 16
Ltmp460:
	.cfi_offset %rbp, -16
	movq	%rsp, %rbp
Ltmp461:
	.cfi_def_cfa_register %rbp
	movq	__ZTId@GOTPCREL(%rip), %rax
	movq	8(%rax), %rax
	popq	%rbp
	retq
	.cfi_endproc

	.globl	_set_apertureRadius
	.align	4, 0x90
_set_apertureRadius:                    ## @set_apertureRadius
	.cfi_startproc
	.cfi_personality 155, ___gxx_personality_v0
Leh_func_begin56:
	.cfi_lsda 16, Lexception56
## BB#0:
	pushq	%rbp
Ltmp470:
	.cfi_def_cfa_offset 16
Ltmp471:
	.cfi_offset %rbp, -16
	movq	%rsp, %rbp
Ltmp472:
	.cfi_def_cfa_register %rbp
	pushq	%r14
	pushq	%rbx
	subq	$16, %rsp
Ltmp473:
	.cfi_offset %rbx, -32
Ltmp474:
	.cfi_offset %r14, -24
	movsd	%xmm0, -32(%rbp)        ## 8-byte Spill
	movsd	%xmm0, _camera+16216(%rip)
	movq	__ZNSt3__14coutE@GOTPCREL(%rip), %rdi
	leaq	L_.str10(%rip), %rsi
	movl	$12, %edx
	callq	__ZNSt3__124__put_character_sequenceIcNS_11char_traitsIcEEEERNS_13basic_ostreamIT_T0_EES7_PKS4_m
	leaq	L_.str24(%rip), %rsi
	movl	$21, %edx
	movq	%rax, %rdi
	callq	__ZNSt3__124__put_character_sequenceIcNS_11char_traitsIcEEEERNS_13basic_ostreamIT_T0_EES7_PKS4_m
	leaq	L_.str12(%rip), %rsi
	movl	$3, %edx
	movq	%rax, %rdi
	callq	__ZNSt3__124__put_character_sequenceIcNS_11char_traitsIcEEEERNS_13basic_ostreamIT_T0_EES7_PKS4_m
	movq	%rax, %rdi
	movsd	-32(%rbp), %xmm0        ## 8-byte Reload
	callq	__ZNSt3__113basic_ostreamIcNS_11char_traitsIcEEElsEd
	movq	%rax, %rbx
	movq	(%rbx), %rax
	movq	-24(%rax), %rsi
	addq	%rbx, %rsi
	leaq	-24(%rbp), %r14
	movq	%r14, %rdi
	callq	__ZNKSt3__18ios_base6getlocEv
Ltmp462:
	movq	__ZNSt3__15ctypeIcE2idE@GOTPCREL(%rip), %rsi
	movq	%r14, %rdi
	callq	__ZNKSt3__16locale9use_facetERNS0_2idE
Ltmp463:
## BB#1:
	movq	(%rax), %rcx
	movq	56(%rcx), %rcx
Ltmp464:
	movl	$10, %esi
	movq	%rax, %rdi
	callq	*%rcx
	movb	%al, %r14b
Ltmp465:
## BB#2:                                ## %_ZNSt3__14endlIcNS_11char_traitsIcEEEERNS_13basic_ostreamIT_T0_EES7_.exit
	leaq	-24(%rbp), %rdi
	callq	__ZNSt3__16localeD1Ev
	movsbl	%r14b, %esi
	movq	%rbx, %rdi
	callq	__ZNSt3__113basic_ostreamIcNS_11char_traitsIcEEE3putEc
	movq	%rbx, %rdi
	callq	__ZNSt3__113basic_ostreamIcNS_11char_traitsIcEEE5flushEv
	addq	$16, %rsp
	popq	%rbx
	popq	%r14
	popq	%rbp
	retq
LBB56_3:
Ltmp466:
	movq	%rax, %rbx
	leaq	-24(%rbp), %rax
	movq	%rax, %rdi
	callq	__ZNSt3__16localeD1Ev
	movq	%rbx, %rdi
	callq	__Unwind_Resume
	.cfi_endproc
Leh_func_end56:
	.section	__TEXT,__gcc_except_tab
	.align	2
GCC_except_table56:
Lexception56:
	.byte	255                     ## @LPStart Encoding = omit
	.byte	155                     ## @TType Encoding = indirect pcrel sdata4
	.byte	41                      ## @TType base offset
	.byte	3                       ## Call site Encoding = udata4
	.byte	39                      ## Call site table length
Lset109 = Leh_func_begin56-Leh_func_begin56 ## >> Call Site 1 <<
	.long	Lset109
Lset110 = Ltmp462-Leh_func_begin56      ##   Call between Leh_func_begin56 and Ltmp462
	.long	Lset110
	.long	0                       ##     has no landing pad
	.byte	0                       ##   On action: cleanup
Lset111 = Ltmp462-Leh_func_begin56      ## >> Call Site 2 <<
	.long	Lset111
Lset112 = Ltmp465-Ltmp462               ##   Call between Ltmp462 and Ltmp465
	.long	Lset112
Lset113 = Ltmp466-Leh_func_begin56      ##     jumps to Ltmp466
	.long	Lset113
	.byte	0                       ##   On action: cleanup
Lset114 = Ltmp465-Leh_func_begin56      ## >> Call Site 3 <<
	.long	Lset114
Lset115 = Leh_func_end56-Ltmp465        ##   Call between Ltmp465 and Leh_func_end56
	.long	Lset115
	.long	0                       ##     has no landing pad
	.byte	0                       ##   On action: cleanup
	.align	2

	.section	__TEXT,__text,regular,pure_instructions
	.globl	_get_apertureRadius
	.align	4, 0x90
_get_apertureRadius:                    ## @get_apertureRadius
	.cfi_startproc
## BB#0:
	pushq	%rbp
Ltmp477:
	.cfi_def_cfa_offset 16
Ltmp478:
	.cfi_offset %rbp, -16
	movq	%rsp, %rbp
Ltmp479:
	.cfi_def_cfa_register %rbp
	movsd	_camera+16216(%rip), %xmm0
	popq	%rbp
	retq
	.cfi_endproc

	.globl	_get_type_of_apertureRadius
	.align	4, 0x90
_get_type_of_apertureRadius:            ## @get_type_of_apertureRadius
	.cfi_startproc
## BB#0:
	pushq	%rbp
Ltmp482:
	.cfi_def_cfa_offset 16
Ltmp483:
	.cfi_offset %rbp, -16
	movq	%rsp, %rbp
Ltmp484:
	.cfi_def_cfa_register %rbp
	movq	__ZTId@GOTPCREL(%rip), %rax
	movq	8(%rax), %rax
	popq	%rbp
	retq
	.cfi_endproc

	.globl	_set_smooth_normal
	.align	4, 0x90
_set_smooth_normal:                     ## @set_smooth_normal
	.cfi_startproc
	.cfi_personality 155, ___gxx_personality_v0
Leh_func_begin59:
	.cfi_lsda 16, Lexception59
## BB#0:
	pushq	%rbp
Ltmp493:
	.cfi_def_cfa_offset 16
Ltmp494:
	.cfi_offset %rbp, -16
	movq	%rsp, %rbp
Ltmp495:
	.cfi_def_cfa_register %rbp
	pushq	%r14
	pushq	%rbx
	subq	$16, %rsp
Ltmp496:
	.cfi_offset %rbx, -32
Ltmp497:
	.cfi_offset %r14, -24
	movl	%edi, %ebx
	movl	%ebx, _smooth_normal(%rip)
	movq	__ZNSt3__14coutE@GOTPCREL(%rip), %rdi
	leaq	L_.str10(%rip), %rsi
	movl	$12, %edx
	callq	__ZNSt3__124__put_character_sequenceIcNS_11char_traitsIcEEEERNS_13basic_ostreamIT_T0_EES7_PKS4_m
	leaq	L_.str25(%rip), %rsi
	movl	$13, %edx
	movq	%rax, %rdi
	callq	__ZNSt3__124__put_character_sequenceIcNS_11char_traitsIcEEEERNS_13basic_ostreamIT_T0_EES7_PKS4_m
	leaq	L_.str12(%rip), %rsi
	movl	$3, %edx
	movq	%rax, %rdi
	callq	__ZNSt3__124__put_character_sequenceIcNS_11char_traitsIcEEEERNS_13basic_ostreamIT_T0_EES7_PKS4_m
	movq	%rax, %rdi
	movl	%ebx, %esi
	callq	__ZNSt3__113basic_ostreamIcNS_11char_traitsIcEEElsEi
	movq	%rax, %rbx
	movq	(%rbx), %rax
	movq	-24(%rax), %rsi
	addq	%rbx, %rsi
	leaq	-24(%rbp), %r14
	movq	%r14, %rdi
	callq	__ZNKSt3__18ios_base6getlocEv
Ltmp485:
	movq	__ZNSt3__15ctypeIcE2idE@GOTPCREL(%rip), %rsi
	movq	%r14, %rdi
	callq	__ZNKSt3__16locale9use_facetERNS0_2idE
Ltmp486:
## BB#1:
	movq	(%rax), %rcx
	movq	56(%rcx), %rcx
Ltmp487:
	movl	$10, %esi
	movq	%rax, %rdi
	callq	*%rcx
	movb	%al, %r14b
Ltmp488:
## BB#2:                                ## %_ZNSt3__14endlIcNS_11char_traitsIcEEEERNS_13basic_ostreamIT_T0_EES7_.exit
	leaq	-24(%rbp), %rdi
	callq	__ZNSt3__16localeD1Ev
	movsbl	%r14b, %esi
	movq	%rbx, %rdi
	callq	__ZNSt3__113basic_ostreamIcNS_11char_traitsIcEEE3putEc
	movq	%rbx, %rdi
	callq	__ZNSt3__113basic_ostreamIcNS_11char_traitsIcEEE5flushEv
	addq	$16, %rsp
	popq	%rbx
	popq	%r14
	popq	%rbp
	retq
LBB59_3:
Ltmp489:
	movq	%rax, %rbx
	leaq	-24(%rbp), %rax
	movq	%rax, %rdi
	callq	__ZNSt3__16localeD1Ev
	movq	%rbx, %rdi
	callq	__Unwind_Resume
	.cfi_endproc
Leh_func_end59:
	.section	__TEXT,__gcc_except_tab
	.align	2
GCC_except_table59:
Lexception59:
	.byte	255                     ## @LPStart Encoding = omit
	.byte	155                     ## @TType Encoding = indirect pcrel sdata4
	.byte	41                      ## @TType base offset
	.byte	3                       ## Call site Encoding = udata4
	.byte	39                      ## Call site table length
Lset116 = Leh_func_begin59-Leh_func_begin59 ## >> Call Site 1 <<
	.long	Lset116
Lset117 = Ltmp485-Leh_func_begin59      ##   Call between Leh_func_begin59 and Ltmp485
	.long	Lset117
	.long	0                       ##     has no landing pad
	.byte	0                       ##   On action: cleanup
Lset118 = Ltmp485-Leh_func_begin59      ## >> Call Site 2 <<
	.long	Lset118
Lset119 = Ltmp488-Ltmp485               ##   Call between Ltmp485 and Ltmp488
	.long	Lset119
Lset120 = Ltmp489-Leh_func_begin59      ##     jumps to Ltmp489
	.long	Lset120
	.byte	0                       ##   On action: cleanup
Lset121 = Ltmp488-Leh_func_begin59      ## >> Call Site 3 <<
	.long	Lset121
Lset122 = Leh_func_end59-Ltmp488        ##   Call between Ltmp488 and Leh_func_end59
	.long	Lset122
	.long	0                       ##     has no landing pad
	.byte	0                       ##   On action: cleanup
	.align	2

	.section	__TEXT,__text,regular,pure_instructions
	.globl	_get_smooth_normal
	.align	4, 0x90
_get_smooth_normal:                     ## @get_smooth_normal
	.cfi_startproc
## BB#0:
	pushq	%rbp
Ltmp500:
	.cfi_def_cfa_offset 16
Ltmp501:
	.cfi_offset %rbp, -16
	movq	%rsp, %rbp
Ltmp502:
	.cfi_def_cfa_register %rbp
	movl	_smooth_normal(%rip), %eax
	popq	%rbp
	retq
	.cfi_endproc

	.globl	_get_type_of_smooth_normal
	.align	4, 0x90
_get_type_of_smooth_normal:             ## @get_type_of_smooth_normal
	.cfi_startproc
## BB#0:
	pushq	%rbp
Ltmp505:
	.cfi_def_cfa_offset 16
Ltmp506:
	.cfi_offset %rbp, -16
	movq	%rsp, %rbp
Ltmp507:
	.cfi_def_cfa_register %rbp
	movq	__ZTIi@GOTPCREL(%rip), %rax
	movq	8(%rax), %rax
	popq	%rbp
	retq
	.cfi_endproc

	.globl	_set_fixed_sample
	.align	4, 0x90
_set_fixed_sample:                      ## @set_fixed_sample
	.cfi_startproc
	.cfi_personality 155, ___gxx_personality_v0
Leh_func_begin62:
	.cfi_lsda 16, Lexception62
## BB#0:
	pushq	%rbp
Ltmp516:
	.cfi_def_cfa_offset 16
Ltmp517:
	.cfi_offset %rbp, -16
	movq	%rsp, %rbp
Ltmp518:
	.cfi_def_cfa_register %rbp
	pushq	%r14
	pushq	%rbx
	subq	$16, %rsp
Ltmp519:
	.cfi_offset %rbx, -32
Ltmp520:
	.cfi_offset %r14, -24
	movl	%edi, %ebx
	movl	%ebx, _camera+16208(%rip)
	movq	__ZNSt3__14coutE@GOTPCREL(%rip), %rdi
	leaq	L_.str10(%rip), %rsi
	movl	$12, %edx
	callq	__ZNSt3__124__put_character_sequenceIcNS_11char_traitsIcEEEERNS_13basic_ostreamIT_T0_EES7_PKS4_m
	leaq	L_.str26(%rip), %rsi
	movl	$19, %edx
	movq	%rax, %rdi
	callq	__ZNSt3__124__put_character_sequenceIcNS_11char_traitsIcEEEERNS_13basic_ostreamIT_T0_EES7_PKS4_m
	leaq	L_.str12(%rip), %rsi
	movl	$3, %edx
	movq	%rax, %rdi
	callq	__ZNSt3__124__put_character_sequenceIcNS_11char_traitsIcEEEERNS_13basic_ostreamIT_T0_EES7_PKS4_m
	movq	%rax, %rdi
	movl	%ebx, %esi
	callq	__ZNSt3__113basic_ostreamIcNS_11char_traitsIcEEElsEi
	movq	%rax, %rbx
	movq	(%rbx), %rax
	movq	-24(%rax), %rsi
	addq	%rbx, %rsi
	leaq	-24(%rbp), %r14
	movq	%r14, %rdi
	callq	__ZNKSt3__18ios_base6getlocEv
Ltmp508:
	movq	__ZNSt3__15ctypeIcE2idE@GOTPCREL(%rip), %rsi
	movq	%r14, %rdi
	callq	__ZNKSt3__16locale9use_facetERNS0_2idE
Ltmp509:
## BB#1:
	movq	(%rax), %rcx
	movq	56(%rcx), %rcx
Ltmp510:
	movl	$10, %esi
	movq	%rax, %rdi
	callq	*%rcx
	movb	%al, %r14b
Ltmp511:
## BB#2:                                ## %_ZNSt3__14endlIcNS_11char_traitsIcEEEERNS_13basic_ostreamIT_T0_EES7_.exit
	leaq	-24(%rbp), %rdi
	callq	__ZNSt3__16localeD1Ev
	movsbl	%r14b, %esi
	movq	%rbx, %rdi
	callq	__ZNSt3__113basic_ostreamIcNS_11char_traitsIcEEE3putEc
	movq	%rbx, %rdi
	callq	__ZNSt3__113basic_ostreamIcNS_11char_traitsIcEEE5flushEv
	addq	$16, %rsp
	popq	%rbx
	popq	%r14
	popq	%rbp
	retq
LBB62_3:
Ltmp512:
	movq	%rax, %rbx
	leaq	-24(%rbp), %rax
	movq	%rax, %rdi
	callq	__ZNSt3__16localeD1Ev
	movq	%rbx, %rdi
	callq	__Unwind_Resume
	.cfi_endproc
Leh_func_end62:
	.section	__TEXT,__gcc_except_tab
	.align	2
GCC_except_table62:
Lexception62:
	.byte	255                     ## @LPStart Encoding = omit
	.byte	155                     ## @TType Encoding = indirect pcrel sdata4
	.byte	41                      ## @TType base offset
	.byte	3                       ## Call site Encoding = udata4
	.byte	39                      ## Call site table length
Lset123 = Leh_func_begin62-Leh_func_begin62 ## >> Call Site 1 <<
	.long	Lset123
Lset124 = Ltmp508-Leh_func_begin62      ##   Call between Leh_func_begin62 and Ltmp508
	.long	Lset124
	.long	0                       ##     has no landing pad
	.byte	0                       ##   On action: cleanup
Lset125 = Ltmp508-Leh_func_begin62      ## >> Call Site 2 <<
	.long	Lset125
Lset126 = Ltmp511-Ltmp508               ##   Call between Ltmp508 and Ltmp511
	.long	Lset126
Lset127 = Ltmp512-Leh_func_begin62      ##     jumps to Ltmp512
	.long	Lset127
	.byte	0                       ##   On action: cleanup
Lset128 = Ltmp511-Leh_func_begin62      ## >> Call Site 3 <<
	.long	Lset128
Lset129 = Leh_func_end62-Ltmp511        ##   Call between Ltmp511 and Leh_func_end62
	.long	Lset129
	.long	0                       ##     has no landing pad
	.byte	0                       ##   On action: cleanup
	.align	2

	.section	__TEXT,__text,regular,pure_instructions
	.globl	_get_fixed_sample
	.align	4, 0x90
_get_fixed_sample:                      ## @get_fixed_sample
	.cfi_startproc
## BB#0:
	pushq	%rbp
Ltmp523:
	.cfi_def_cfa_offset 16
Ltmp524:
	.cfi_offset %rbp, -16
	movq	%rsp, %rbp
Ltmp525:
	.cfi_def_cfa_register %rbp
	movl	_camera+16208(%rip), %eax
	popq	%rbp
	retq
	.cfi_endproc

	.globl	_get_type_of_fixed_sample
	.align	4, 0x90
_get_type_of_fixed_sample:              ## @get_type_of_fixed_sample
	.cfi_startproc
## BB#0:
	pushq	%rbp
Ltmp528:
	.cfi_def_cfa_offset 16
Ltmp529:
	.cfi_offset %rbp, -16
	movq	%rsp, %rbp
Ltmp530:
	.cfi_def_cfa_register %rbp
	movq	__ZTIi@GOTPCREL(%rip), %rax
	movq	8(%rax), %rax
	popq	%rbp
	retq
	.cfi_endproc

	.globl	_set_focus
	.align	4, 0x90
_set_focus:                             ## @set_focus
	.cfi_startproc
	.cfi_personality 155, ___gxx_personality_v0
Leh_func_begin65:
	.cfi_lsda 16, Lexception65
## BB#0:                                ## %_ZN5Eigen6MatrixIdLi4ELi1ELi0ELi4ELi1EEC1ERKdS3_S3_S3_.exit
	pushq	%rbp
Ltmp539:
	.cfi_def_cfa_offset 16
Ltmp540:
	.cfi_offset %rbp, -16
	movq	%rsp, %rbp
Ltmp541:
	.cfi_def_cfa_register %rbp
	pushq	%r14
	pushq	%rbx
	subq	$80, %rsp
Ltmp542:
	.cfi_offset %rbx, -32
Ltmp543:
	.cfi_offset %r14, -24
	movsd	%xmm2, -72(%rbp)        ## 8-byte Spill
	movsd	%xmm1, -80(%rbp)        ## 8-byte Spill
	movsd	%xmm0, -88(%rbp)        ## 8-byte Spill
	movsd	%xmm0, -64(%rbp)
	movsd	%xmm1, -56(%rbp)
	movsd	%xmm2, -48(%rbp)
	movabsq	$4607182418800017408, %rax ## imm = 0x3FF0000000000000
	movq	%rax, -40(%rbp)
	movaps	-64(%rbp), %xmm0
	movaps	%xmm0, _camera+176(%rip)
	movaps	-48(%rbp), %xmm0
	movaps	%xmm0, _camera+192(%rip)
	movq	__ZNSt3__14coutE@GOTPCREL(%rip), %rdi
	leaq	L_.str10(%rip), %rsi
	movl	$12, %edx
	callq	__ZNSt3__124__put_character_sequenceIcNS_11char_traitsIcEEEERNS_13basic_ostreamIT_T0_EES7_PKS4_m
	leaq	L_.str27(%rip), %rsi
	movl	$12, %edx
	movq	%rax, %rdi
	callq	__ZNSt3__124__put_character_sequenceIcNS_11char_traitsIcEEEERNS_13basic_ostreamIT_T0_EES7_PKS4_m
	leaq	L_.str12(%rip), %rsi
	movl	$3, %edx
	movq	%rax, %rdi
	callq	__ZNSt3__124__put_character_sequenceIcNS_11char_traitsIcEEEERNS_13basic_ostreamIT_T0_EES7_PKS4_m
	leaq	L_.str28(%rip), %rsi
	movl	$1, %edx
	movq	%rax, %rdi
	callq	__ZNSt3__124__put_character_sequenceIcNS_11char_traitsIcEEEERNS_13basic_ostreamIT_T0_EES7_PKS4_m
	movq	%rax, %rdi
	movsd	-88(%rbp), %xmm0        ## 8-byte Reload
	callq	__ZNSt3__113basic_ostreamIcNS_11char_traitsIcEEElsEd
	leaq	L_.str29(%rip), %rbx
	movl	$1, %edx
	movq	%rax, %rdi
	movq	%rbx, %rsi
	callq	__ZNSt3__124__put_character_sequenceIcNS_11char_traitsIcEEEERNS_13basic_ostreamIT_T0_EES7_PKS4_m
	movq	%rax, %rdi
	movsd	-80(%rbp), %xmm0        ## 8-byte Reload
	callq	__ZNSt3__113basic_ostreamIcNS_11char_traitsIcEEElsEd
	movl	$1, %edx
	movq	%rax, %rdi
	movq	%rbx, %rsi
	callq	__ZNSt3__124__put_character_sequenceIcNS_11char_traitsIcEEEERNS_13basic_ostreamIT_T0_EES7_PKS4_m
	movq	%rax, %rdi
	movsd	-72(%rbp), %xmm0        ## 8-byte Reload
	callq	__ZNSt3__113basic_ostreamIcNS_11char_traitsIcEEElsEd
	leaq	L_.str30(%rip), %rsi
	movl	$1, %edx
	movq	%rax, %rdi
	callq	__ZNSt3__124__put_character_sequenceIcNS_11char_traitsIcEEEERNS_13basic_ostreamIT_T0_EES7_PKS4_m
	movq	%rax, %rbx
	movq	(%rbx), %rax
	movq	-24(%rax), %rsi
	addq	%rbx, %rsi
	leaq	-24(%rbp), %r14
	movq	%r14, %rdi
	callq	__ZNKSt3__18ios_base6getlocEv
Ltmp531:
	movq	__ZNSt3__15ctypeIcE2idE@GOTPCREL(%rip), %rsi
	movq	%r14, %rdi
	callq	__ZNKSt3__16locale9use_facetERNS0_2idE
Ltmp532:
## BB#1:
	movq	(%rax), %rcx
	movq	56(%rcx), %rcx
Ltmp533:
	movl	$10, %esi
	movq	%rax, %rdi
	callq	*%rcx
	movb	%al, %r14b
Ltmp534:
## BB#2:                                ## %_ZNSt3__14endlIcNS_11char_traitsIcEEEERNS_13basic_ostreamIT_T0_EES7_.exit
	leaq	-24(%rbp), %rdi
	callq	__ZNSt3__16localeD1Ev
	movsbl	%r14b, %esi
	movq	%rbx, %rdi
	callq	__ZNSt3__113basic_ostreamIcNS_11char_traitsIcEEE3putEc
	movq	%rbx, %rdi
	callq	__ZNSt3__113basic_ostreamIcNS_11char_traitsIcEEE5flushEv
	addq	$80, %rsp
	popq	%rbx
	popq	%r14
	popq	%rbp
	retq
LBB65_3:
Ltmp535:
	movq	%rax, %rbx
	leaq	-24(%rbp), %rax
	movq	%rax, %rdi
	callq	__ZNSt3__16localeD1Ev
	movq	%rbx, %rdi
	callq	__Unwind_Resume
	.cfi_endproc
Leh_func_end65:
	.section	__TEXT,__gcc_except_tab
	.align	2
GCC_except_table65:
Lexception65:
	.byte	255                     ## @LPStart Encoding = omit
	.byte	155                     ## @TType Encoding = indirect pcrel sdata4
	.byte	41                      ## @TType base offset
	.byte	3                       ## Call site Encoding = udata4
	.byte	39                      ## Call site table length
Lset130 = Leh_func_begin65-Leh_func_begin65 ## >> Call Site 1 <<
	.long	Lset130
Lset131 = Ltmp531-Leh_func_begin65      ##   Call between Leh_func_begin65 and Ltmp531
	.long	Lset131
	.long	0                       ##     has no landing pad
	.byte	0                       ##   On action: cleanup
Lset132 = Ltmp531-Leh_func_begin65      ## >> Call Site 2 <<
	.long	Lset132
Lset133 = Ltmp534-Ltmp531               ##   Call between Ltmp531 and Ltmp534
	.long	Lset133
Lset134 = Ltmp535-Leh_func_begin65      ##     jumps to Ltmp535
	.long	Lset134
	.byte	0                       ##   On action: cleanup
Lset135 = Ltmp534-Leh_func_begin65      ## >> Call Site 3 <<
	.long	Lset135
Lset136 = Leh_func_end65-Ltmp534        ##   Call between Ltmp534 and Leh_func_end65
	.long	Lset136
	.long	0                       ##     has no landing pad
	.byte	0                       ##   On action: cleanup
	.align	2

	.section	__TEXT,__text,regular,pure_instructions
	.globl	_get_focus
	.align	4, 0x90
_get_focus:                             ## @get_focus
	.cfi_startproc
## BB#0:
	pushq	%rbp
Ltmp546:
	.cfi_def_cfa_offset 16
Ltmp547:
	.cfi_offset %rbp, -16
	movq	%rsp, %rbp
Ltmp548:
	.cfi_def_cfa_register %rbp
	leaq	_camera+176(%rip), %rax
	popq	%rbp
	retq
	.cfi_endproc

	.globl	_get_type_of_focus
	.align	4, 0x90
_get_type_of_focus:                     ## @get_type_of_focus
	.cfi_startproc
## BB#0:
	pushq	%rbp
Ltmp551:
	.cfi_def_cfa_offset 16
Ltmp552:
	.cfi_offset %rbp, -16
	movq	%rsp, %rbp
Ltmp553:
	.cfi_def_cfa_register %rbp
	leaq	L_.str31(%rip), %rax
	popq	%rbp
	retq
	.cfi_endproc

	.globl	_set_center
	.align	4, 0x90
_set_center:                            ## @set_center
	.cfi_startproc
	.cfi_personality 155, ___gxx_personality_v0
Leh_func_begin68:
	.cfi_lsda 16, Lexception68
## BB#0:                                ## %_ZN5Eigen6MatrixIdLi4ELi1ELi0ELi4ELi1EEC1ERKdS3_S3_S3_.exit
	pushq	%rbp
Ltmp562:
	.cfi_def_cfa_offset 16
Ltmp563:
	.cfi_offset %rbp, -16
	movq	%rsp, %rbp
Ltmp564:
	.cfi_def_cfa_register %rbp
	pushq	%r14
	pushq	%rbx
	subq	$80, %rsp
Ltmp565:
	.cfi_offset %rbx, -32
Ltmp566:
	.cfi_offset %r14, -24
	movsd	%xmm2, -72(%rbp)        ## 8-byte Spill
	movsd	%xmm1, -80(%rbp)        ## 8-byte Spill
	movsd	%xmm0, -88(%rbp)        ## 8-byte Spill
	movsd	%xmm0, -64(%rbp)
	movsd	%xmm1, -56(%rbp)
	movsd	%xmm2, -48(%rbp)
	movabsq	$4607182418800017408, %rax ## imm = 0x3FF0000000000000
	movq	%rax, -40(%rbp)
	movaps	-64(%rbp), %xmm0
	movaps	%xmm0, _camera+16(%rip)
	movaps	-48(%rbp), %xmm0
	movaps	%xmm0, _camera+32(%rip)
	movq	__ZNSt3__14coutE@GOTPCREL(%rip), %rdi
	leaq	L_.str10(%rip), %rsi
	movl	$12, %edx
	callq	__ZNSt3__124__put_character_sequenceIcNS_11char_traitsIcEEEERNS_13basic_ostreamIT_T0_EES7_PKS4_m
	leaq	L_.str32(%rip), %rsi
	movl	$13, %edx
	movq	%rax, %rdi
	callq	__ZNSt3__124__put_character_sequenceIcNS_11char_traitsIcEEEERNS_13basic_ostreamIT_T0_EES7_PKS4_m
	leaq	L_.str12(%rip), %rsi
	movl	$3, %edx
	movq	%rax, %rdi
	callq	__ZNSt3__124__put_character_sequenceIcNS_11char_traitsIcEEEERNS_13basic_ostreamIT_T0_EES7_PKS4_m
	leaq	L_.str28(%rip), %rsi
	movl	$1, %edx
	movq	%rax, %rdi
	callq	__ZNSt3__124__put_character_sequenceIcNS_11char_traitsIcEEEERNS_13basic_ostreamIT_T0_EES7_PKS4_m
	movq	%rax, %rdi
	movsd	-88(%rbp), %xmm0        ## 8-byte Reload
	callq	__ZNSt3__113basic_ostreamIcNS_11char_traitsIcEEElsEd
	leaq	L_.str29(%rip), %rbx
	movl	$1, %edx
	movq	%rax, %rdi
	movq	%rbx, %rsi
	callq	__ZNSt3__124__put_character_sequenceIcNS_11char_traitsIcEEEERNS_13basic_ostreamIT_T0_EES7_PKS4_m
	movq	%rax, %rdi
	movsd	-80(%rbp), %xmm0        ## 8-byte Reload
	callq	__ZNSt3__113basic_ostreamIcNS_11char_traitsIcEEElsEd
	movl	$1, %edx
	movq	%rax, %rdi
	movq	%rbx, %rsi
	callq	__ZNSt3__124__put_character_sequenceIcNS_11char_traitsIcEEEERNS_13basic_ostreamIT_T0_EES7_PKS4_m
	movq	%rax, %rdi
	movsd	-72(%rbp), %xmm0        ## 8-byte Reload
	callq	__ZNSt3__113basic_ostreamIcNS_11char_traitsIcEEElsEd
	leaq	L_.str30(%rip), %rsi
	movl	$1, %edx
	movq	%rax, %rdi
	callq	__ZNSt3__124__put_character_sequenceIcNS_11char_traitsIcEEEERNS_13basic_ostreamIT_T0_EES7_PKS4_m
	movq	%rax, %rbx
	movq	(%rbx), %rax
	movq	-24(%rax), %rsi
	addq	%rbx, %rsi
	leaq	-24(%rbp), %r14
	movq	%r14, %rdi
	callq	__ZNKSt3__18ios_base6getlocEv
Ltmp554:
	movq	__ZNSt3__15ctypeIcE2idE@GOTPCREL(%rip), %rsi
	movq	%r14, %rdi
	callq	__ZNKSt3__16locale9use_facetERNS0_2idE
Ltmp555:
## BB#1:
	movq	(%rax), %rcx
	movq	56(%rcx), %rcx
Ltmp556:
	movl	$10, %esi
	movq	%rax, %rdi
	callq	*%rcx
	movb	%al, %r14b
Ltmp557:
## BB#2:                                ## %_ZNSt3__14endlIcNS_11char_traitsIcEEEERNS_13basic_ostreamIT_T0_EES7_.exit
	leaq	-24(%rbp), %rdi
	callq	__ZNSt3__16localeD1Ev
	movsbl	%r14b, %esi
	movq	%rbx, %rdi
	callq	__ZNSt3__113basic_ostreamIcNS_11char_traitsIcEEE3putEc
	movq	%rbx, %rdi
	callq	__ZNSt3__113basic_ostreamIcNS_11char_traitsIcEEE5flushEv
	addq	$80, %rsp
	popq	%rbx
	popq	%r14
	popq	%rbp
	retq
LBB68_3:
Ltmp558:
	movq	%rax, %rbx
	leaq	-24(%rbp), %rax
	movq	%rax, %rdi
	callq	__ZNSt3__16localeD1Ev
	movq	%rbx, %rdi
	callq	__Unwind_Resume
	.cfi_endproc
Leh_func_end68:
	.section	__TEXT,__gcc_except_tab
	.align	2
GCC_except_table68:
Lexception68:
	.byte	255                     ## @LPStart Encoding = omit
	.byte	155                     ## @TType Encoding = indirect pcrel sdata4
	.byte	41                      ## @TType base offset
	.byte	3                       ## Call site Encoding = udata4
	.byte	39                      ## Call site table length
Lset137 = Leh_func_begin68-Leh_func_begin68 ## >> Call Site 1 <<
	.long	Lset137
Lset138 = Ltmp554-Leh_func_begin68      ##   Call between Leh_func_begin68 and Ltmp554
	.long	Lset138
	.long	0                       ##     has no landing pad
	.byte	0                       ##   On action: cleanup
Lset139 = Ltmp554-Leh_func_begin68      ## >> Call Site 2 <<
	.long	Lset139
Lset140 = Ltmp557-Ltmp554               ##   Call between Ltmp554 and Ltmp557
	.long	Lset140
Lset141 = Ltmp558-Leh_func_begin68      ##     jumps to Ltmp558
	.long	Lset141
	.byte	0                       ##   On action: cleanup
Lset142 = Ltmp557-Leh_func_begin68      ## >> Call Site 3 <<
	.long	Lset142
Lset143 = Leh_func_end68-Ltmp557        ##   Call between Ltmp557 and Leh_func_end68
	.long	Lset143
	.long	0                       ##     has no landing pad
	.byte	0                       ##   On action: cleanup
	.align	2

	.section	__TEXT,__text,regular,pure_instructions
	.globl	_get_center
	.align	4, 0x90
_get_center:                            ## @get_center
	.cfi_startproc
## BB#0:
	pushq	%rbp
Ltmp569:
	.cfi_def_cfa_offset 16
Ltmp570:
	.cfi_offset %rbp, -16
	movq	%rsp, %rbp
Ltmp571:
	.cfi_def_cfa_register %rbp
	leaq	_camera+16(%rip), %rax
	popq	%rbp
	retq
	.cfi_endproc

	.globl	_get_type_of_center
	.align	4, 0x90
_get_type_of_center:                    ## @get_type_of_center
	.cfi_startproc
## BB#0:
	pushq	%rbp
Ltmp574:
	.cfi_def_cfa_offset 16
Ltmp575:
	.cfi_offset %rbp, -16
	movq	%rsp, %rbp
Ltmp576:
	.cfi_def_cfa_register %rbp
	leaq	L_.str31(%rip), %rax
	popq	%rbp
	retq
	.cfi_endproc

	.globl	_set_up
	.align	4, 0x90
_set_up:                                ## @set_up
	.cfi_startproc
	.cfi_personality 155, ___gxx_personality_v0
Leh_func_begin71:
	.cfi_lsda 16, Lexception71
## BB#0:                                ## %_ZN5Eigen6MatrixIdLi4ELi1ELi0ELi4ELi1EEC1ERKdS3_S3_S3_.exit
	pushq	%rbp
Ltmp585:
	.cfi_def_cfa_offset 16
Ltmp586:
	.cfi_offset %rbp, -16
	movq	%rsp, %rbp
Ltmp587:
	.cfi_def_cfa_register %rbp
	pushq	%r14
	pushq	%rbx
	subq	$80, %rsp
Ltmp588:
	.cfi_offset %rbx, -32
Ltmp589:
	.cfi_offset %r14, -24
	movsd	%xmm2, -72(%rbp)        ## 8-byte Spill
	movsd	%xmm1, -80(%rbp)        ## 8-byte Spill
	movsd	%xmm0, -88(%rbp)        ## 8-byte Spill
	movsd	%xmm0, -64(%rbp)
	movsd	%xmm1, -56(%rbp)
	movsd	%xmm2, -48(%rbp)
	movabsq	$4607182418800017408, %rax ## imm = 0x3FF0000000000000
	movq	%rax, -40(%rbp)
	movaps	-64(%rbp), %xmm0
	movaps	%xmm0, _camera+80(%rip)
	movaps	-48(%rbp), %xmm0
	movaps	%xmm0, _camera+96(%rip)
	movq	__ZNSt3__14coutE@GOTPCREL(%rip), %rdi
	leaq	L_.str10(%rip), %rsi
	movl	$12, %edx
	callq	__ZNSt3__124__put_character_sequenceIcNS_11char_traitsIcEEEERNS_13basic_ostreamIT_T0_EES7_PKS4_m
	leaq	L_.str33(%rip), %rsi
	movl	$9, %edx
	movq	%rax, %rdi
	callq	__ZNSt3__124__put_character_sequenceIcNS_11char_traitsIcEEEERNS_13basic_ostreamIT_T0_EES7_PKS4_m
	leaq	L_.str12(%rip), %rsi
	movl	$3, %edx
	movq	%rax, %rdi
	callq	__ZNSt3__124__put_character_sequenceIcNS_11char_traitsIcEEEERNS_13basic_ostreamIT_T0_EES7_PKS4_m
	leaq	L_.str28(%rip), %rsi
	movl	$1, %edx
	movq	%rax, %rdi
	callq	__ZNSt3__124__put_character_sequenceIcNS_11char_traitsIcEEEERNS_13basic_ostreamIT_T0_EES7_PKS4_m
	movq	%rax, %rdi
	movsd	-88(%rbp), %xmm0        ## 8-byte Reload
	callq	__ZNSt3__113basic_ostreamIcNS_11char_traitsIcEEElsEd
	leaq	L_.str29(%rip), %rbx
	movl	$1, %edx
	movq	%rax, %rdi
	movq	%rbx, %rsi
	callq	__ZNSt3__124__put_character_sequenceIcNS_11char_traitsIcEEEERNS_13basic_ostreamIT_T0_EES7_PKS4_m
	movq	%rax, %rdi
	movsd	-80(%rbp), %xmm0        ## 8-byte Reload
	callq	__ZNSt3__113basic_ostreamIcNS_11char_traitsIcEEElsEd
	movl	$1, %edx
	movq	%rax, %rdi
	movq	%rbx, %rsi
	callq	__ZNSt3__124__put_character_sequenceIcNS_11char_traitsIcEEEERNS_13basic_ostreamIT_T0_EES7_PKS4_m
	movq	%rax, %rdi
	movsd	-72(%rbp), %xmm0        ## 8-byte Reload
	callq	__ZNSt3__113basic_ostreamIcNS_11char_traitsIcEEElsEd
	leaq	L_.str30(%rip), %rsi
	movl	$1, %edx
	movq	%rax, %rdi
	callq	__ZNSt3__124__put_character_sequenceIcNS_11char_traitsIcEEEERNS_13basic_ostreamIT_T0_EES7_PKS4_m
	movq	%rax, %rbx
	movq	(%rbx), %rax
	movq	-24(%rax), %rsi
	addq	%rbx, %rsi
	leaq	-24(%rbp), %r14
	movq	%r14, %rdi
	callq	__ZNKSt3__18ios_base6getlocEv
Ltmp577:
	movq	__ZNSt3__15ctypeIcE2idE@GOTPCREL(%rip), %rsi
	movq	%r14, %rdi
	callq	__ZNKSt3__16locale9use_facetERNS0_2idE
Ltmp578:
## BB#1:
	movq	(%rax), %rcx
	movq	56(%rcx), %rcx
Ltmp579:
	movl	$10, %esi
	movq	%rax, %rdi
	callq	*%rcx
	movb	%al, %r14b
Ltmp580:
## BB#2:                                ## %_ZNSt3__14endlIcNS_11char_traitsIcEEEERNS_13basic_ostreamIT_T0_EES7_.exit
	leaq	-24(%rbp), %rdi
	callq	__ZNSt3__16localeD1Ev
	movsbl	%r14b, %esi
	movq	%rbx, %rdi
	callq	__ZNSt3__113basic_ostreamIcNS_11char_traitsIcEEE3putEc
	movq	%rbx, %rdi
	callq	__ZNSt3__113basic_ostreamIcNS_11char_traitsIcEEE5flushEv
	addq	$80, %rsp
	popq	%rbx
	popq	%r14
	popq	%rbp
	retq
LBB71_3:
Ltmp581:
	movq	%rax, %rbx
	leaq	-24(%rbp), %rax
	movq	%rax, %rdi
	callq	__ZNSt3__16localeD1Ev
	movq	%rbx, %rdi
	callq	__Unwind_Resume
	.cfi_endproc
Leh_func_end71:
	.section	__TEXT,__gcc_except_tab
	.align	2
GCC_except_table71:
Lexception71:
	.byte	255                     ## @LPStart Encoding = omit
	.byte	155                     ## @TType Encoding = indirect pcrel sdata4
	.byte	41                      ## @TType base offset
	.byte	3                       ## Call site Encoding = udata4
	.byte	39                      ## Call site table length
Lset144 = Leh_func_begin71-Leh_func_begin71 ## >> Call Site 1 <<
	.long	Lset144
Lset145 = Ltmp577-Leh_func_begin71      ##   Call between Leh_func_begin71 and Ltmp577
	.long	Lset145
	.long	0                       ##     has no landing pad
	.byte	0                       ##   On action: cleanup
Lset146 = Ltmp577-Leh_func_begin71      ## >> Call Site 2 <<
	.long	Lset146
Lset147 = Ltmp580-Ltmp577               ##   Call between Ltmp577 and Ltmp580
	.long	Lset147
Lset148 = Ltmp581-Leh_func_begin71      ##     jumps to Ltmp581
	.long	Lset148
	.byte	0                       ##   On action: cleanup
Lset149 = Ltmp580-Leh_func_begin71      ## >> Call Site 3 <<
	.long	Lset149
Lset150 = Leh_func_end71-Ltmp580        ##   Call between Ltmp580 and Leh_func_end71
	.long	Lset150
	.long	0                       ##     has no landing pad
	.byte	0                       ##   On action: cleanup
	.align	2

	.section	__TEXT,__text,regular,pure_instructions
	.globl	_get_up
	.align	4, 0x90
_get_up:                                ## @get_up
	.cfi_startproc
## BB#0:
	pushq	%rbp
Ltmp592:
	.cfi_def_cfa_offset 16
Ltmp593:
	.cfi_offset %rbp, -16
	movq	%rsp, %rbp
Ltmp594:
	.cfi_def_cfa_register %rbp
	leaq	_camera+80(%rip), %rax
	popq	%rbp
	retq
	.cfi_endproc

	.globl	_get_type_of_up
	.align	4, 0x90
_get_type_of_up:                        ## @get_type_of_up
	.cfi_startproc
## BB#0:
	pushq	%rbp
Ltmp597:
	.cfi_def_cfa_offset 16
Ltmp598:
	.cfi_offset %rbp, -16
	movq	%rsp, %rbp
Ltmp599:
	.cfi_def_cfa_register %rbp
	leaq	L_.str31(%rip), %rax
	popq	%rbp
	retq
	.cfi_endproc

	.globl	_set_back
	.align	4, 0x90
_set_back:                              ## @set_back
	.cfi_startproc
	.cfi_personality 155, ___gxx_personality_v0
Leh_func_begin74:
	.cfi_lsda 16, Lexception74
## BB#0:                                ## %_ZN5Eigen6MatrixIdLi4ELi1ELi0ELi4ELi1EEC1ERKdS3_S3_S3_.exit
	pushq	%rbp
Ltmp608:
	.cfi_def_cfa_offset 16
Ltmp609:
	.cfi_offset %rbp, -16
	movq	%rsp, %rbp
Ltmp610:
	.cfi_def_cfa_register %rbp
	pushq	%r14
	pushq	%rbx
	subq	$80, %rsp
Ltmp611:
	.cfi_offset %rbx, -32
Ltmp612:
	.cfi_offset %r14, -24
	movsd	%xmm2, -72(%rbp)        ## 8-byte Spill
	movsd	%xmm1, -80(%rbp)        ## 8-byte Spill
	movsd	%xmm0, -88(%rbp)        ## 8-byte Spill
	movsd	%xmm0, -64(%rbp)
	movsd	%xmm1, -56(%rbp)
	movsd	%xmm2, -48(%rbp)
	movabsq	$4607182418800017408, %rax ## imm = 0x3FF0000000000000
	movq	%rax, -40(%rbp)
	movaps	-64(%rbp), %xmm0
	movaps	%xmm0, _camera+112(%rip)
	movaps	-48(%rbp), %xmm0
	movaps	%xmm0, _camera+128(%rip)
	movq	__ZNSt3__14coutE@GOTPCREL(%rip), %rdi
	leaq	L_.str10(%rip), %rsi
	movl	$12, %edx
	callq	__ZNSt3__124__put_character_sequenceIcNS_11char_traitsIcEEEERNS_13basic_ostreamIT_T0_EES7_PKS4_m
	leaq	L_.str34(%rip), %rsi
	movl	$11, %edx
	movq	%rax, %rdi
	callq	__ZNSt3__124__put_character_sequenceIcNS_11char_traitsIcEEEERNS_13basic_ostreamIT_T0_EES7_PKS4_m
	leaq	L_.str12(%rip), %rsi
	movl	$3, %edx
	movq	%rax, %rdi
	callq	__ZNSt3__124__put_character_sequenceIcNS_11char_traitsIcEEEERNS_13basic_ostreamIT_T0_EES7_PKS4_m
	leaq	L_.str28(%rip), %rsi
	movl	$1, %edx
	movq	%rax, %rdi
	callq	__ZNSt3__124__put_character_sequenceIcNS_11char_traitsIcEEEERNS_13basic_ostreamIT_T0_EES7_PKS4_m
	movq	%rax, %rdi
	movsd	-88(%rbp), %xmm0        ## 8-byte Reload
	callq	__ZNSt3__113basic_ostreamIcNS_11char_traitsIcEEElsEd
	leaq	L_.str29(%rip), %rbx
	movl	$1, %edx
	movq	%rax, %rdi
	movq	%rbx, %rsi
	callq	__ZNSt3__124__put_character_sequenceIcNS_11char_traitsIcEEEERNS_13basic_ostreamIT_T0_EES7_PKS4_m
	movq	%rax, %rdi
	movsd	-80(%rbp), %xmm0        ## 8-byte Reload
	callq	__ZNSt3__113basic_ostreamIcNS_11char_traitsIcEEElsEd
	movl	$1, %edx
	movq	%rax, %rdi
	movq	%rbx, %rsi
	callq	__ZNSt3__124__put_character_sequenceIcNS_11char_traitsIcEEEERNS_13basic_ostreamIT_T0_EES7_PKS4_m
	movq	%rax, %rdi
	movsd	-72(%rbp), %xmm0        ## 8-byte Reload
	callq	__ZNSt3__113basic_ostreamIcNS_11char_traitsIcEEElsEd
	leaq	L_.str30(%rip), %rsi
	movl	$1, %edx
	movq	%rax, %rdi
	callq	__ZNSt3__124__put_character_sequenceIcNS_11char_traitsIcEEEERNS_13basic_ostreamIT_T0_EES7_PKS4_m
	movq	%rax, %rbx
	movq	(%rbx), %rax
	movq	-24(%rax), %rsi
	addq	%rbx, %rsi
	leaq	-24(%rbp), %r14
	movq	%r14, %rdi
	callq	__ZNKSt3__18ios_base6getlocEv
Ltmp600:
	movq	__ZNSt3__15ctypeIcE2idE@GOTPCREL(%rip), %rsi
	movq	%r14, %rdi
	callq	__ZNKSt3__16locale9use_facetERNS0_2idE
Ltmp601:
## BB#1:
	movq	(%rax), %rcx
	movq	56(%rcx), %rcx
Ltmp602:
	movl	$10, %esi
	movq	%rax, %rdi
	callq	*%rcx
	movb	%al, %r14b
Ltmp603:
## BB#2:                                ## %_ZNSt3__14endlIcNS_11char_traitsIcEEEERNS_13basic_ostreamIT_T0_EES7_.exit
	leaq	-24(%rbp), %rdi
	callq	__ZNSt3__16localeD1Ev
	movsbl	%r14b, %esi
	movq	%rbx, %rdi
	callq	__ZNSt3__113basic_ostreamIcNS_11char_traitsIcEEE3putEc
	movq	%rbx, %rdi
	callq	__ZNSt3__113basic_ostreamIcNS_11char_traitsIcEEE5flushEv
	addq	$80, %rsp
	popq	%rbx
	popq	%r14
	popq	%rbp
	retq
LBB74_3:
Ltmp604:
	movq	%rax, %rbx
	leaq	-24(%rbp), %rax
	movq	%rax, %rdi
	callq	__ZNSt3__16localeD1Ev
	movq	%rbx, %rdi
	callq	__Unwind_Resume
	.cfi_endproc
Leh_func_end74:
	.section	__TEXT,__gcc_except_tab
	.align	2
GCC_except_table74:
Lexception74:
	.byte	255                     ## @LPStart Encoding = omit
	.byte	155                     ## @TType Encoding = indirect pcrel sdata4
	.byte	41                      ## @TType base offset
	.byte	3                       ## Call site Encoding = udata4
	.byte	39                      ## Call site table length
Lset151 = Leh_func_begin74-Leh_func_begin74 ## >> Call Site 1 <<
	.long	Lset151
Lset152 = Ltmp600-Leh_func_begin74      ##   Call between Leh_func_begin74 and Ltmp600
	.long	Lset152
	.long	0                       ##     has no landing pad
	.byte	0                       ##   On action: cleanup
Lset153 = Ltmp600-Leh_func_begin74      ## >> Call Site 2 <<
	.long	Lset153
Lset154 = Ltmp603-Ltmp600               ##   Call between Ltmp600 and Ltmp603
	.long	Lset154
Lset155 = Ltmp604-Leh_func_begin74      ##     jumps to Ltmp604
	.long	Lset155
	.byte	0                       ##   On action: cleanup
Lset156 = Ltmp603-Leh_func_begin74      ## >> Call Site 3 <<
	.long	Lset156
Lset157 = Leh_func_end74-Ltmp603        ##   Call between Ltmp603 and Leh_func_end74
	.long	Lset157
	.long	0                       ##     has no landing pad
	.byte	0                       ##   On action: cleanup
	.align	2

	.section	__TEXT,__text,regular,pure_instructions
	.globl	_get_back
	.align	4, 0x90
_get_back:                              ## @get_back
	.cfi_startproc
## BB#0:
	pushq	%rbp
Ltmp615:
	.cfi_def_cfa_offset 16
Ltmp616:
	.cfi_offset %rbp, -16
	movq	%rsp, %rbp
Ltmp617:
	.cfi_def_cfa_register %rbp
	leaq	_camera+112(%rip), %rax
	popq	%rbp
	retq
	.cfi_endproc

	.globl	_get_type_of_back
	.align	4, 0x90
_get_type_of_back:                      ## @get_type_of_back
	.cfi_startproc
## BB#0:
	pushq	%rbp
Ltmp620:
	.cfi_def_cfa_offset 16
Ltmp621:
	.cfi_offset %rbp, -16
	movq	%rsp, %rbp
Ltmp622:
	.cfi_def_cfa_register %rbp
	leaq	L_.str31(%rip), %rax
	popq	%rbp
	retq
	.cfi_endproc

	.section	__TEXT,__textcoal_nt,coalesced,pure_instructions
	.globl	__ZNSt3__16vectorIP7TextureNS_9allocatorIS2_EEED1Ev
	.weak_def_can_be_hidden	__ZNSt3__16vectorIP7TextureNS_9allocatorIS2_EEED1Ev
	.align	4, 0x90
__ZNSt3__16vectorIP7TextureNS_9allocatorIS2_EEED1Ev: ## @_ZNSt3__16vectorIP7TextureNS_9allocatorIS2_EEED1Ev
	.cfi_startproc
## BB#0:
	pushq	%rbp
Ltmp625:
	.cfi_def_cfa_offset 16
Ltmp626:
	.cfi_offset %rbp, -16
	movq	%rsp, %rbp
Ltmp627:
	.cfi_def_cfa_register %rbp
	movq	%rdi, %rax
	movq	(%rax), %rdi
	testq	%rdi, %rdi
	je	LBB77_4
## BB#1:
	movq	8(%rax), %rcx
	cmpq	%rdi, %rcx
	je	LBB77_3
## BB#2:                                ## %.lr.ph.i.i.i.i
	leaq	-8(%rcx), %rdx
	subq	%rdi, %rdx
	notq	%rdx
	andq	$-8, %rdx
	addq	%rcx, %rdx
	movq	%rdx, 8(%rax)
LBB77_3:                                ## %_ZNSt3__113__vector_baseIP7TextureNS_9allocatorIS2_EEE5clearEv.exit.i.i
	popq	%rbp
	jmp	__ZdlPv                 ## TAILCALL
LBB77_4:                                ## %_ZNSt3__16vectorIP7TextureNS_9allocatorIS2_EEED2Ev.exit
	popq	%rbp
	retq
	.cfi_endproc

	.globl	__ZNSt3__16vectorIiNS_9allocatorIiEEED1Ev
	.weak_def_can_be_hidden	__ZNSt3__16vectorIiNS_9allocatorIiEEED1Ev
	.align	4, 0x90
__ZNSt3__16vectorIiNS_9allocatorIiEEED1Ev: ## @_ZNSt3__16vectorIiNS_9allocatorIiEEED1Ev
	.cfi_startproc
## BB#0:
	pushq	%rbp
Ltmp630:
	.cfi_def_cfa_offset 16
Ltmp631:
	.cfi_offset %rbp, -16
	movq	%rsp, %rbp
Ltmp632:
	.cfi_def_cfa_register %rbp
	movq	%rdi, %rax
	movq	(%rax), %rdi
	testq	%rdi, %rdi
	je	LBB78_4
## BB#1:
	movq	8(%rax), %rcx
	cmpq	%rdi, %rcx
	je	LBB78_3
## BB#2:                                ## %.lr.ph.i.i.i.i
	leaq	-4(%rcx), %rdx
	subq	%rdi, %rdx
	notq	%rdx
	andq	$-4, %rdx
	addq	%rcx, %rdx
	movq	%rdx, 8(%rax)
LBB78_3:                                ## %_ZNSt3__113__vector_baseIiNS_9allocatorIiEEE5clearEv.exit.i.i
	popq	%rbp
	jmp	__ZdlPv                 ## TAILCALL
LBB78_4:                                ## %_ZNSt3__16vectorIiNS_9allocatorIiEEED2Ev.exit
	popq	%rbp
	retq
	.cfi_endproc

	.globl	__ZNSt3__16vectorINS0_IN5Eigen6MatrixIdLi4ELi1ELi0ELi4ELi1EEENS_9allocatorIS3_EEEENS4_IS6_EEED1Ev
	.weak_def_can_be_hidden	__ZNSt3__16vectorINS0_IN5Eigen6MatrixIdLi4ELi1ELi0ELi4ELi1EEENS_9allocatorIS3_EEEENS4_IS6_EEED1Ev
	.align	4, 0x90
__ZNSt3__16vectorINS0_IN5Eigen6MatrixIdLi4ELi1ELi0ELi4ELi1EEENS_9allocatorIS3_EEEENS4_IS6_EEED1Ev: ## @_ZNSt3__16vectorINS0_IN5Eigen6MatrixIdLi4ELi1ELi0ELi4ELi1EEENS_9allocatorIS3_EEEENS4_IS6_EEED1Ev
	.cfi_startproc
## BB#0:
	pushq	%rbp
Ltmp636:
	.cfi_def_cfa_offset 16
Ltmp637:
	.cfi_offset %rbp, -16
	movq	%rsp, %rbp
Ltmp638:
	.cfi_def_cfa_register %rbp
	pushq	%r14
	pushq	%rbx
Ltmp639:
	.cfi_offset %rbx, -32
Ltmp640:
	.cfi_offset %r14, -24
	movq	%rdi, %rbx
	movq	(%rbx), %r14
	testq	%r14, %r14
	je	LBB79_9
## BB#1:
	movq	8(%rbx), %rax
	cmpq	%r14, %rax
	je	LBB79_5
	.align	4, 0x90
LBB79_2:                                ## %.lr.ph.i.i.i.i
                                        ## =>This Inner Loop Header: Depth=1
	leaq	-24(%rax), %rcx
	movq	%rcx, 8(%rbx)
	movq	-24(%rax), %rdi
	testq	%rdi, %rdi
	je	LBB79_3
## BB#6:                                ##   in Loop: Header=BB79_2 Depth=1
	movq	-16(%rax), %rcx
	cmpq	%rdi, %rcx
	je	LBB79_8
## BB#7:                                ## %.lr.ph.i.i.i.i.i.i.i.i.i.i.i.i
                                        ##   in Loop: Header=BB79_2 Depth=1
	leaq	-32(%rcx), %rdx
	subq	%rdi, %rdx
	notq	%rdx
	andq	$-32, %rdx
	addq	%rcx, %rdx
	movq	%rdx, -16(%rax)
LBB79_8:                                ## %_ZNSt3__113__vector_baseIN5Eigen6MatrixIdLi4ELi1ELi0ELi4ELi1EEENS_9allocatorIS3_EEE5clearEv.exit.i.i.i.i.i.i.i.i.i.i
                                        ##   in Loop: Header=BB79_2 Depth=1
	callq	__ZdlPv
	movq	8(%rbx), %rcx
LBB79_3:                                ## %_ZNSt3__116allocator_traitsINS_9allocatorINS_6vectorIN5Eigen6MatrixIdLi4ELi1ELi0ELi4ELi1EEENS1_IS5_EEEEEEE7destroyIS7_EEvRS8_PT_.exit.backedge.i.i.i.i
                                        ##   in Loop: Header=BB79_2 Depth=1
	cmpq	%r14, %rcx
	movq	%rcx, %rax
	jne	LBB79_2
## BB#4:                                ## %_ZNSt3__113__vector_baseINS_6vectorIN5Eigen6MatrixIdLi4ELi1ELi0ELi4ELi1EEENS_9allocatorIS4_EEEENS5_IS7_EEE5clearEv.exit.loopexit.i.i
	movq	(%rbx), %r14
LBB79_5:                                ## %_ZNSt3__113__vector_baseINS_6vectorIN5Eigen6MatrixIdLi4ELi1ELi0ELi4ELi1EEENS_9allocatorIS4_EEEENS5_IS7_EEE5clearEv.exit.i.i
	movq	%r14, %rdi
	popq	%rbx
	popq	%r14
	popq	%rbp
	jmp	__ZdlPv                 ## TAILCALL
LBB79_9:                                ## %_ZNSt3__16vectorINS0_IN5Eigen6MatrixIdLi4ELi1ELi0ELi4ELi1EEENS_9allocatorIS3_EEEENS4_IS6_EEED2Ev.exit
	popq	%rbx
	popq	%r14
	popq	%rbp
	retq
	.cfi_endproc

	.section	__TEXT,__text,regular,pure_instructions
	.globl	__Z16push_view_matrixN5Eigen6MatrixIdLi4ELi4ELi0ELi4ELi4EEE
	.align	4, 0x90
__Z16push_view_matrixN5Eigen6MatrixIdLi4ELi4ELi0ELi4ELi4EEE: ## @_Z16push_view_matrixN5Eigen6MatrixIdLi4ELi4ELi0ELi4ELi4EEE
	.cfi_startproc
## BB#0:
	pushq	%rbp
Ltmp643:
	.cfi_def_cfa_offset 16
Ltmp644:
	.cfi_offset %rbp, -16
	movq	%rsp, %rbp
Ltmp645:
	.cfi_def_cfa_register %rbp
	popq	%rbp
	retq
	.cfi_endproc

	.section	__TEXT,__const
	.align	4
LCPI81_0:
	.long	0                       ## 0x0
	.long	2147483648              ## 0x80000000
	.long	0                       ## 0x0
	.long	2147483648              ## 0x80000000
	.section	__TEXT,__text,regular,pure_instructions
	.globl	_set_up_and_back
	.align	4, 0x90
_set_up_and_back:                       ## @set_up_and_back
	.cfi_startproc
## BB#0:                                ## %_ZN5Eigen6MatrixIdLi4ELi1ELi0ELi4ELi1EEC1ERKdS3_S3_S3_.exit
	pushq	%rbp
Ltmp648:
	.cfi_def_cfa_offset 16
Ltmp649:
	.cfi_offset %rbp, -16
	movq	%rsp, %rbp
Ltmp650:
	.cfi_def_cfa_register %rbp
	movsd	%xmm0, -48(%rbp)
	movsd	%xmm1, -40(%rbp)
	movsd	%xmm2, -32(%rbp)
	movq	$0, -24(%rbp)
	movapd	-48(%rbp), %xmm0
	movapd	-32(%rbp), %xmm6
	movapd	%xmm6, -16(%rbp)
	movq	$0, -8(%rbp)
	movapd	%xmm0, %xmm1
	mulpd	%xmm1, %xmm1
	movapd	-16(%rbp), %xmm2
	mulpd	%xmm2, %xmm2
	addpd	%xmm1, %xmm2
	haddpd	%xmm2, %xmm2
	sqrtsd	%xmm2, %xmm1
	shufpd	$0, %xmm1, %xmm1        ## xmm1 = xmm1[0,0]
	divpd	%xmm1, %xmm0
	divpd	%xmm1, %xmm6
	movsd	%xmm3, -80(%rbp)
	movsd	%xmm4, -72(%rbp)
	movsd	%xmm5, -64(%rbp)
	movq	$0, -56(%rbp)
	movapd	-80(%rbp), %xmm2
	movapd	-64(%rbp), %xmm1
	movapd	%xmm1, -16(%rbp)
	movq	$0, -8(%rbp)
	movapd	%xmm2, %xmm3
	mulpd	%xmm3, %xmm3
	movapd	-16(%rbp), %xmm4
	mulpd	%xmm4, %xmm4
	addpd	%xmm3, %xmm4
	haddpd	%xmm4, %xmm4
	sqrtsd	%xmm4, %xmm3
	shufpd	$0, %xmm3, %xmm3        ## xmm3 = xmm3[0,0]
	divpd	%xmm3, %xmm2
	divpd	%xmm3, %xmm1
	movapd	%xmm0, _camera+80(%rip)
	movapd	%xmm6, _camera+96(%rip)
	movapd	%xmm2, _camera+112(%rip)
	movapd	%xmm1, _camera+128(%rip)
	movupd	_camera+88(%rip), %xmm3
	movapd	%xmm2, %xmm4
	unpckhpd	%xmm4, %xmm4    ## xmm4 = xmm4[1,1]
	movapd	%xmm2, %xmm5
	mulsd	%xmm3, %xmm5
	mulsd	%xmm0, %xmm4
	movapd	%xmm3, %xmm6
	shufpd	$1, %xmm1, %xmm6        ## xmm6 = xmm6[1],xmm1[0]
	movapd	%xmm2, %xmm7
	shufpd	$1, %xmm0, %xmm7        ## xmm7 = xmm7[1],xmm0[0]
	mulpd	%xmm6, %xmm7
	movapd	%xmm1, %xmm0
	unpcklpd	%xmm2, %xmm0    ## xmm0 = xmm0[0],xmm2[0]
	mulpd	%xmm3, %xmm0
	subsd	%xmm5, %xmm4
	subpd	%xmm7, %xmm0
	movsd	%xmm4, -16(%rbp)
	movq	$0, -8(%rbp)
	movapd	%xmm0, _camera+144(%rip)
	movaps	-16(%rbp), %xmm0
	movaps	%xmm0, _camera+160(%rip)
	movapd	LCPI81_0(%rip), %xmm0
	xorpd	%xmm0, %xmm2
	movapd	%xmm2, _camera+48(%rip)
	xorpd	%xmm0, %xmm1
	movapd	%xmm1, _camera+64(%rip)
	popq	%rbp
	retq
	.cfi_endproc

	.globl	_move_view_port
	.align	4, 0x90
_move_view_port:                        ## @move_view_port
	.cfi_startproc
## BB#0:                                ## %_ZN5Eigen6MatrixIdLi4ELi1ELi0ELi4ELi1EEC1ERKdS3_S3_S3_.exit
	pushq	%rbp
Ltmp653:
	.cfi_def_cfa_offset 16
Ltmp654:
	.cfi_offset %rbp, -16
	movq	%rsp, %rbp
Ltmp655:
	.cfi_def_cfa_register %rbp
	movsd	%xmm0, -32(%rbp)
	movsd	%xmm1, -24(%rbp)
	movsd	%xmm2, -16(%rbp)
	movq	$0, -8(%rbp)
	movdqa	-32(%rbp), %xmm0
	pshufd	$68, %xmm0, %xmm1       ## xmm1 = xmm0[0,1,0,1]
	movapd	_camera+144(%rip), %xmm2
	mulpd	%xmm1, %xmm2
	shufpd	$3, %xmm0, %xmm0        ## xmm0 = xmm0[1,1]
	movapd	_camera+80(%rip), %xmm3
	mulpd	%xmm0, %xmm3
	addpd	%xmm2, %xmm3
	movddup	-16(%rbp), %xmm2
	movapd	_camera+112(%rip), %xmm4
	mulpd	%xmm2, %xmm4
	addpd	%xmm3, %xmm4
	mulpd	_camera+160(%rip), %xmm1
	mulpd	_camera+96(%rip), %xmm0
	addpd	%xmm1, %xmm0
	mulpd	_camera+128(%rip), %xmm2
	addpd	%xmm0, %xmm2
	addpd	_camera+16(%rip), %xmm4
	movapd	%xmm4, _camera+16(%rip)
	addpd	_camera+32(%rip), %xmm2
	movapd	%xmm2, _camera+32(%rip)
	popq	%rbp
	retq
	.cfi_endproc

	.globl	_rotate_view_port
	.align	4, 0x90
_rotate_view_port:                      ## @rotate_view_port
	.cfi_startproc
## BB#0:                                ## %_ZN5Eigen6MatrixIdLi4ELi1ELi0ELi4ELi1EEC1ERKdS3_S3_S3_.exit
	pushq	%rbp
Ltmp658:
	.cfi_def_cfa_offset 16
Ltmp659:
	.cfi_offset %rbp, -16
	movq	%rsp, %rbp
Ltmp660:
	.cfi_def_cfa_register %rbp
	subq	$32, %rsp
	movsd	%xmm0, -32(%rbp)
	movsd	%xmm1, -24(%rbp)
	movsd	%xmm2, -16(%rbp)
	movq	$0, -8(%rbp)
	leaq	_camera(%rip), %rdi
	leaq	-32(%rbp), %rsi
	movaps	%xmm3, %xmm0
	callq	__ZN6Camera6rotateEN5Eigen6MatrixIdLi4ELi1ELi0ELi4ELi1EEEd
	addq	$32, %rsp
	popq	%rbp
	retq
	.cfi_endproc

	.section	__TEXT,__literal8,8byte_literals
	.align	3
LCPI84_0:
	.quad	4607182418800017408     ## double 1
	.section	__TEXT,__const
	.align	4
LCPI84_1:
	.long	0                       ## 0x0
	.long	0                       ## 0x0
	.long	0                       ## 0x0
	.long	2147483648              ## 0x80000000
LCPI84_2:
	.long	0                       ## 0x0
	.long	2147483648              ## 0x80000000
	.long	0                       ## 0x0
	.long	0                       ## 0x0
LCPI84_3:
	.long	0                       ## 0x0
	.long	2147483648              ## 0x80000000
	.long	0                       ## 0x0
	.long	2147483648              ## 0x80000000
	.section	__TEXT,__textcoal_nt,coalesced,pure_instructions
	.globl	__ZN6Camera6rotateEN5Eigen6MatrixIdLi4ELi1ELi0ELi4ELi1EEEd
	.weak_def_can_be_hidden	__ZN6Camera6rotateEN5Eigen6MatrixIdLi4ELi1ELi0ELi4ELi1EEEd
	.align	4, 0x90
__ZN6Camera6rotateEN5Eigen6MatrixIdLi4ELi1ELi0ELi4ELi1EEEd: ## @_ZN6Camera6rotateEN5Eigen6MatrixIdLi4ELi1ELi0ELi4ELi1EEEd
	.cfi_startproc
## BB#0:                                ## %_ZN5Eigen6MatrixIdLi4ELi1ELi0ELi4ELi1EEC1ERKS1_.exit
	pushq	%rbp
Ltmp664:
	.cfi_def_cfa_offset 16
Ltmp665:
	.cfi_offset %rbp, -16
	movq	%rsp, %rbp
Ltmp666:
	.cfi_def_cfa_register %rbp
	pushq	%r14
	pushq	%rbx
	subq	$400, %rsp              ## imm = 0x190
Ltmp667:
	.cfi_offset %rbx, -32
Ltmp668:
	.cfi_offset %r14, -24
	movq	%rdi, %rbx
	movq	___stack_chk_guard@GOTPCREL(%rip), %r14
	movq	(%r14), %rax
	movq	%rax, -24(%rbp)
	movdqa	(%rsi), %xmm1
	movdqa	16(%rsi), %xmm4
	pshufd	$68, %xmm1, %xmm2       ## xmm2 = xmm1[0,1,0,1]
	mulpd	144(%rbx), %xmm2
	pshufd	$238, %xmm1, %xmm3      ## xmm3 = xmm1[2,3,2,3]
	mulpd	80(%rbx), %xmm3
	addpd	%xmm2, %xmm3
	pshufd	$68, %xmm4, %xmm2       ## xmm2 = xmm4[0,1,0,1]
	mulpd	112(%rbx), %xmm2
	addpd	%xmm3, %xmm2
	movapd	%xmm2, -304(%rbp)       ## 16-byte Spill
	movapd	%xmm2, %xmm3
	movsd	160(%rbx), %xmm2
	mulsd	%xmm1, %xmm2
	unpckhpd	%xmm1, %xmm1    ## xmm1 = xmm1[1,1]
	mulsd	96(%rbx), %xmm1
	addsd	%xmm2, %xmm1
	mulsd	128(%rbx), %xmm4
	addsd	%xmm1, %xmm4
	movaps	%xmm4, -272(%rbp)       ## 16-byte Spill
	movapd	%xmm3, %xmm1
	unpckhpd	%xmm1, %xmm1    ## xmm1 = xmm1[1,1]
	movapd	%xmm1, -288(%rbp)       ## 16-byte Spill
	callq	___sincos_stret
	movapd	%xmm0, %xmm14
	movaps	-304(%rbp), %xmm5       ## 16-byte Reload
	movaps	%xmm5, %xmm8
	mulsd	%xmm14, %xmm8
	movapd	-288(%rbp), %xmm3       ## 16-byte Reload
	movapd	%xmm3, %xmm0
	movapd	-272(%rbp), %xmm2       ## 16-byte Reload
	unpcklpd	%xmm2, %xmm0    ## xmm0 = xmm0[0],xmm2[0]
	shufpd	$0, %xmm14, %xmm14      ## xmm14 = xmm14[0,0]
	mulpd	%xmm0, %xmm14
	movsd	LCPI84_0(%rip), %xmm4
	subsd	%xmm1, %xmm4
	movaps	%xmm5, %xmm0
	movaps	%xmm0, %xmm11
	mulsd	%xmm4, %xmm11
	movapd	%xmm3, %xmm6
	movapd	%xmm3, %xmm13
	mulsd	%xmm4, %xmm6
	mulsd	%xmm2, %xmm4
	pshufd	$68, %xmm11, %xmm7      ## xmm7 = xmm11[0,1,0,1]
	movaps	%xmm0, %xmm3
	movaps	%xmm0, %xmm12
	movsd	%xmm2, %xmm3
	mulpd	%xmm7, %xmm3
	movapd	%xmm14, %xmm9
	addsd	%xmm3, %xmm9
	movapd	%xmm3, %xmm5
	subpd	%xmm14, %xmm5
	movapd	%xmm2, %xmm7
	mulsd	%xmm6, %xmm7
	movapd	%xmm7, %xmm10
	subsd	%xmm8, %xmm10
	mulsd	%xmm13, %xmm6
	movapd	%xmm1, %xmm0
	unpcklpd	%xmm8, %xmm0    ## xmm0 = xmm0[0],xmm8[0]
	unpcklpd	%xmm7, %xmm6    ## xmm6 = xmm6[0],xmm7[0]
	addpd	%xmm0, %xmm6
	mulsd	%xmm2, %xmm4
	addsd	%xmm1, %xmm4
	movlpd	%xmm5, -80(%rbp)
	movhpd	%xmm5, -64(%rbp)
	movupd	%xmm6, -56(%rbp)
	movsd	%xmm9, -96(%rbp)
	movsd	%xmm10, -88(%rbp)
	movsd	%xmm4, -112(%rbp)
	movq	$0, -72(%rbp)
	movq	$0, -40(%rbp)
	movq	$0, -104(%rbp)
	movq	$0, -128(%rbp)
	movabsq	$4607182418800017408, %rax ## imm = 0x3FF0000000000000
	movq	%rax, -120(%rbp)
	mulsd	%xmm12, %xmm11
	movsd	%xmm11, %xmm3
	movsd	%xmm1, %xmm14
	addpd	%xmm3, %xmm14
	movapd	%xmm14, -256(%rbp)
	movapd	-80(%rbp), %xmm9
	movapd	%xmm9, -384(%rbp)       ## 16-byte Spill
	movapd	%xmm9, -240(%rbp)
	movdqa	-64(%rbp), %xmm0
	movdqa	%xmm0, -288(%rbp)       ## 16-byte Spill
	movdqa	%xmm0, -224(%rbp)
	movdqa	%xmm0, %xmm2
	movdqa	-48(%rbp), %xmm3
	movdqa	%xmm3, -208(%rbp)
	movapd	-96(%rbp), %xmm12
	movapd	%xmm12, -368(%rbp)      ## 16-byte Spill
	movapd	%xmm12, -192(%rbp)
	movapd	-112(%rbp), %xmm11
	movapd	%xmm11, -176(%rbp)
	movaps	-128(%rbp), %xmm0
	movaps	%xmm0, -144(%rbp)
	xorpd	%xmm1, %xmm1
	addsd	%xmm0, %xmm1
	xorps	%xmm0, %xmm0
	movaps	%xmm0, -160(%rbp)
	movsd	%xmm1, -144(%rbp)
	movdqa	-160(%rbp), %xmm15
	movdqa	-144(%rbp), %xmm5
	movdqa	%xmm5, -416(%rbp)       ## 16-byte Spill
	pshufd	$78, %xmm2, %xmm0       ## xmm0 = xmm2[2,3,0,1]
	movdqa	%xmm0, -304(%rbp)       ## 16-byte Spill
	movapd	%xmm14, %xmm13
	mulpd	%xmm0, %xmm13
	movapd	%xmm13, %xmm0
	unpckhpd	%xmm0, %xmm0    ## xmm0 = xmm0[1,1]
	subsd	%xmm0, %xmm13
	pshufd	$78, %xmm3, %xmm1       ## xmm1 = xmm3[2,3,0,1]
	mulpd	%xmm9, %xmm1
	movapd	%xmm1, %xmm0
	unpckhpd	%xmm0, %xmm0    ## xmm0 = xmm0[1,1]
	subsd	%xmm0, %xmm1
	movaps	%xmm1, -320(%rbp)       ## 16-byte Spill
	pshufd	$238, %xmm2, %xmm4      ## xmm4 = xmm2[2,3,2,3]
	mulpd	%xmm9, %xmm4
	pshufd	$68, %xmm14, %xmm8      ## xmm8 = xmm14[0,1,0,1]
	mulpd	%xmm3, %xmm8
	pshufd	$238, %xmm14, %xmm0     ## xmm0 = xmm14[2,3,2,3]
	mulpd	%xmm3, %xmm0
	subpd	%xmm0, %xmm4
	pshufd	$68, %xmm2, %xmm0       ## xmm0 = xmm2[0,1,0,1]
	mulpd	%xmm9, %xmm0
	subpd	%xmm0, %xmm8
	pshufd	$78, %xmm15, %xmm1      ## xmm1 = xmm15[2,3,0,1]
	mulpd	%xmm12, %xmm1
	movapd	%xmm1, %xmm0
	unpckhpd	%xmm0, %xmm0    ## xmm0 = xmm0[1,1]
	subsd	%xmm0, %xmm1
	movaps	%xmm1, -272(%rbp)       ## 16-byte Spill
	movdqa	%xmm5, %xmm1
	pshufd	$78, %xmm1, %xmm0       ## xmm0 = xmm1[2,3,0,1]
	movdqa	%xmm0, -352(%rbp)       ## 16-byte Spill
	movapd	%xmm11, %xmm10
	mulpd	%xmm0, %xmm10
	movapd	%xmm10, %xmm0
	unpckhpd	%xmm0, %xmm0    ## xmm0 = xmm0[1,1]
	subsd	%xmm0, %xmm10
	pshufd	$238, %xmm1, %xmm2      ## xmm2 = xmm1[2,3,2,3]
	movdqa	%xmm1, %xmm0
	pshufd	$238, %xmm11, %xmm1     ## xmm1 = xmm11[2,3,2,3]
	mulpd	%xmm12, %xmm2
	mulpd	%xmm15, %xmm1
	subpd	%xmm1, %xmm2
	pshufd	$68, %xmm11, %xmm1      ## xmm1 = xmm11[0,1,0,1]
	pshufd	$68, %xmm0, %xmm6       ## xmm6 = xmm0[0,1,0,1]
	mulpd	%xmm15, %xmm1
	mulpd	%xmm12, %xmm6
	subpd	%xmm6, %xmm1
	movapd	%xmm2, %xmm6
	movapd	%xmm2, %xmm7
	unpcklpd	%xmm1, %xmm6    ## xmm6 = xmm6[0],xmm1[0]
	mulpd	%xmm4, %xmm6
	unpckhpd	%xmm1, %xmm7    ## xmm7 = xmm7[1],xmm1[1]
	mulpd	%xmm8, %xmm7
	addpd	%xmm6, %xmm7
	movapd	%xmm7, %xmm0
	unpckhpd	%xmm0, %xmm0    ## xmm0 = xmm0[1,1]
	addsd	%xmm7, %xmm0
	movaps	%xmm0, -400(%rbp)       ## 16-byte Spill
	pshufd	$68, %xmm12, %xmm6      ## xmm6 = xmm12[0,1,0,1]
	pshufd	$238, %xmm12, %xmm12    ## xmm12 = xmm12[2,3,2,3]
	mulpd	%xmm4, %xmm6
	mulpd	%xmm8, %xmm12
	addpd	%xmm6, %xmm12
	pshufd	$68, %xmm15, %xmm6      ## xmm6 = xmm15[0,1,0,1]
	pshufd	$238, %xmm15, %xmm7     ## xmm7 = xmm15[2,3,2,3]
	mulpd	%xmm4, %xmm6
	mulpd	%xmm8, %xmm7
	addpd	%xmm6, %xmm7
	pshufd	$68, %xmm9, %xmm6       ## xmm6 = xmm9[0,1,0,1]
	pshufd	$238, %xmm9, %xmm9      ## xmm9 = xmm9[2,3,2,3]
	mulpd	%xmm2, %xmm6
	mulpd	%xmm1, %xmm9
	addpd	%xmm6, %xmm9
	pshufd	$68, %xmm3, %xmm6       ## xmm6 = xmm3[0,1,0,1]
	pshufd	$238, %xmm3, %xmm0      ## xmm0 = xmm3[2,3,2,3]
	mulpd	%xmm2, %xmm6
	mulpd	%xmm1, %xmm0
	addpd	%xmm6, %xmm0
	pshufd	$68, %xmm13, %xmm6      ## xmm6 = xmm13[0,1,0,1]
	movapd	%xmm11, %xmm5
	mulpd	%xmm6, %xmm5
	subpd	%xmm12, %xmm5
	movapd	%xmm5, -336(%rbp)       ## 16-byte Spill
	movapd	-416(%rbp), %xmm5       ## 16-byte Reload
	mulpd	%xmm5, %xmm6
	subpd	%xmm7, %xmm6
	pshufd	$68, %xmm10, %xmm7      ## xmm7 = xmm10[0,1,0,1]
	movapd	%xmm14, %xmm12
	mulpd	%xmm7, %xmm12
	subpd	%xmm9, %xmm12
	mulpd	-288(%rbp), %xmm7       ## 16-byte Folded Reload
	subpd	%xmm0, %xmm7
	mulsd	%xmm13, %xmm10
	movapd	%xmm8, %xmm13
	movapd	%xmm11, %xmm9
	shufpd	$1, %xmm4, %xmm13       ## xmm13 = xmm13[1],xmm4[0]
	mulpd	%xmm13, %xmm9
	mulpd	%xmm5, %xmm13
	movsd	%xmm8, %xmm4
	shufpd	$1, %xmm11, %xmm11      ## xmm11 = xmm11[1,0]
	mulpd	%xmm4, %xmm11
	subpd	%xmm11, %xmm9
	mulpd	-352(%rbp), %xmm4       ## 16-byte Folded Reload
	subpd	%xmm4, %xmm13
	movaps	-272(%rbp), %xmm0       ## 16-byte Reload
	movdqa	-320(%rbp), %xmm5       ## 16-byte Reload
	mulsd	%xmm5, %xmm0
	addsd	%xmm10, %xmm0
	subsd	-400(%rbp), %xmm0       ## 16-byte Folded Reload
	movapd	%xmm1, %xmm4
	movapd	%xmm14, %xmm8
	shufpd	$1, %xmm2, %xmm4        ## xmm4 = xmm4[1],xmm2[0]
	mulpd	%xmm4, %xmm8
	mulpd	-288(%rbp), %xmm4       ## 16-byte Folded Reload
	movsd	%xmm1, %xmm2
	shufpd	$1, %xmm14, %xmm14      ## xmm14 = xmm14[1,0]
	mulpd	%xmm2, %xmm14
	subpd	%xmm14, %xmm8
	mulpd	-304(%rbp), %xmm2       ## 16-byte Folded Reload
	subpd	%xmm2, %xmm4
	movsd	LCPI84_0(%rip), %xmm1
	divsd	%xmm0, %xmm1
	pshufd	$68, %xmm5, %xmm0       ## xmm0 = xmm5[0,1,0,1]
	movapd	-368(%rbp), %xmm2       ## 16-byte Reload
	mulpd	%xmm0, %xmm2
	subpd	%xmm9, %xmm2
	movapd	%xmm2, %xmm14
	shufpd	$0, %xmm1, %xmm1        ## xmm1 = xmm1[0,0]
	mulpd	%xmm0, %xmm15
	subpd	%xmm13, %xmm15
	movapd	LCPI84_1(%rip), %xmm5
	xorpd	%xmm1, %xmm5
	xorpd	LCPI84_2(%rip), %xmm1
	pshufd	$68, -272(%rbp), %xmm0  ## 16-byte Folded Reload
                                        ## xmm0 = mem[0,1,0,1]
	movapd	-384(%rbp), %xmm2       ## 16-byte Reload
	mulpd	%xmm0, %xmm2
	subpd	%xmm8, %xmm2
	movapd	%xmm2, %xmm10
	mulpd	%xmm0, %xmm3
	subpd	%xmm4, %xmm3
	movapd	%xmm7, %xmm9
	unpckhpd	%xmm12, %xmm9   ## xmm9 = xmm9[1],xmm12[1]
	mulpd	%xmm5, %xmm9
	unpcklpd	%xmm12, %xmm7   ## xmm7 = xmm7[0],xmm12[0]
	mulpd	%xmm1, %xmm7
	movapd	%xmm15, %xmm8
	unpckhpd	%xmm14, %xmm8   ## xmm8 = xmm8[1],xmm14[1]
	mulpd	%xmm5, %xmm8
	unpcklpd	%xmm14, %xmm15  ## xmm15 = xmm15[0],xmm14[0]
	mulpd	%xmm1, %xmm15
	movapd	%xmm3, %xmm2
	unpckhpd	%xmm10, %xmm2   ## xmm2 = xmm2[1],xmm10[1]
	mulpd	%xmm5, %xmm2
	unpcklpd	%xmm10, %xmm3   ## xmm3 = xmm3[0],xmm10[0]
	mulpd	%xmm1, %xmm3
	movapd	%xmm6, %xmm12
	movapd	-336(%rbp), %xmm0       ## 16-byte Reload
	unpckhpd	%xmm0, %xmm12   ## xmm12 = xmm12[1],xmm0[1]
	mulpd	%xmm5, %xmm12
	unpcklpd	%xmm0, %xmm6    ## xmm6 = xmm6[0],xmm0[0]
	mulpd	%xmm1, %xmm6
	movddup	80(%rbx), %xmm10
	movapd	%xmm9, %xmm5
	mulpd	%xmm10, %xmm5
	movddup	88(%rbx), %xmm1
	movapd	%xmm7, %xmm0
	mulpd	%xmm1, %xmm0
	addpd	%xmm5, %xmm0
	movddup	96(%rbx), %xmm5
	movapd	%xmm2, %xmm4
	mulpd	%xmm5, %xmm4
	addpd	%xmm0, %xmm4
	movddup	104(%rbx), %xmm0
	movapd	%xmm3, %xmm13
	mulpd	%xmm0, %xmm13
	addpd	%xmm4, %xmm13
	mulpd	%xmm8, %xmm10
	mulpd	%xmm15, %xmm1
	addpd	%xmm10, %xmm1
	mulpd	%xmm12, %xmm5
	addpd	%xmm1, %xmm5
	mulpd	%xmm6, %xmm0
	addpd	%xmm5, %xmm0
	movapd	%xmm13, 80(%rbx)
	movapd	%xmm0, 96(%rbx)
	movddup	112(%rbx), %xmm0
	mulpd	%xmm0, %xmm9
	movddup	120(%rbx), %xmm1
	mulpd	%xmm1, %xmm7
	addpd	%xmm9, %xmm7
	movddup	128(%rbx), %xmm4
	mulpd	%xmm4, %xmm2
	addpd	%xmm7, %xmm2
	movddup	136(%rbx), %xmm5
	mulpd	%xmm5, %xmm3
	addpd	%xmm2, %xmm3
	mulpd	%xmm0, %xmm8
	mulpd	%xmm1, %xmm15
	addpd	%xmm8, %xmm15
	mulpd	%xmm4, %xmm12
	addpd	%xmm15, %xmm12
	mulpd	%xmm5, %xmm6
	addpd	%xmm12, %xmm6
	movapd	%xmm3, 112(%rbx)
	movapd	%xmm6, 128(%rbx)
	movupd	88(%rbx), %xmm0
	movapd	%xmm3, %xmm1
	unpckhpd	%xmm1, %xmm1    ## xmm1 = xmm1[1,1]
	mulsd	%xmm13, %xmm1
	movapd	%xmm3, %xmm2
	shufpd	$1, %xmm13, %xmm2       ## xmm2 = xmm2[1],xmm13[0]
	movapd	%xmm0, %xmm4
	shufpd	$1, %xmm6, %xmm4        ## xmm4 = xmm4[1],xmm6[0]
	mulpd	%xmm4, %xmm2
	movapd	%xmm6, %xmm4
	unpcklpd	%xmm3, %xmm4    ## xmm4 = xmm4[0],xmm3[0]
	mulpd	%xmm0, %xmm4
	mulsd	%xmm3, %xmm0
	subsd	%xmm0, %xmm1
	subpd	%xmm2, %xmm4
	movsd	%xmm1, -64(%rbp)
	movq	$0, -56(%rbp)
	movapd	%xmm4, 144(%rbx)
	movaps	-64(%rbp), %xmm0
	movaps	%xmm0, 160(%rbx)
	movapd	LCPI84_3(%rip), %xmm0
	xorpd	%xmm0, %xmm3
	movapd	%xmm3, 48(%rbx)
	xorpd	%xmm0, %xmm6
	movapd	%xmm6, 64(%rbx)
	movq	(%r14), %rax
	cmpq	-24(%rbp), %rax
	jne	LBB84_2
## BB#1:                                ## %_ZN5Eigen6MatrixIdLi4ELi1ELi0ELi4ELi1EEC1ERKS1_.exit
	addq	$400, %rsp              ## imm = 0x190
	popq	%rbx
	popq	%r14
	popq	%rbp
	retq
LBB84_2:                                ## %_ZN5Eigen6MatrixIdLi4ELi1ELi0ELi4ELi1EEC1ERKS1_.exit
	callq	___stack_chk_fail
	.cfi_endproc

	.section	__TEXT,__text,regular,pure_instructions
	.globl	_write_texture_id
	.align	4, 0x90
_write_texture_id:                      ## @write_texture_id
	.cfi_startproc
## BB#0:
	pushq	%rbp
Ltmp672:
	.cfi_def_cfa_offset 16
Ltmp673:
	.cfi_offset %rbp, -16
	movq	%rsp, %rbp
Ltmp674:
	.cfi_def_cfa_register %rbp
	pushq	%r15
	pushq	%r14
	pushq	%rbx
	pushq	%rax
Ltmp675:
	.cfi_offset %rbx, -40
Ltmp676:
	.cfi_offset %r14, -32
Ltmp677:
	.cfi_offset %r15, -24
	movq	%rsi, %r14
	movl	%edi, %ebx
	movq	_texture_id+8(%rip), %rax
	movq	_texture_id(%rip), %rcx
	cmpq	%rcx, %rax
	je	LBB85_2
## BB#1:                                ## %.lr.ph.i.i.i
	leaq	-4(%rax), %rdx
	subq	%rcx, %rdx
	notq	%rdx
	andq	$-4, %rdx
	addq	%rdx, %rax
	movq	%rax, _texture_id+8(%rip)
LBB85_2:                                ## %_ZNSt3__16vectorIiNS_9allocatorIiEEE6resizeEm.exit.preheader
	testl	%ebx, %ebx
	jle	LBB85_11
## BB#3:                                ## %.lr.ph
	decl	%ebx
	leaq	_texture_id(%rip), %r15
	jmp	LBB85_4
	.align	4, 0x90
LBB85_10:                               ## %_ZNSt3__16vectorIiNS_9allocatorIiEEE9push_backERKi.exit._crit_edge
                                        ##   in Loop: Header=BB85_4 Depth=1
	movq	_texture_id+8(%rip), %rax
	addq	$4, %r14
	decl	%ebx
LBB85_4:                                ## =>This Inner Loop Header: Depth=1
	cmpq	_texture_id+16(%rip), %rax
	je	LBB85_8
## BB#5:                                ##   in Loop: Header=BB85_4 Depth=1
	testq	%rax, %rax
	je	LBB85_7
## BB#6:                                ##   in Loop: Header=BB85_4 Depth=1
	movl	(%r14), %ecx
	movl	%ecx, (%rax)
LBB85_7:                                ## %_ZNSt3__116allocator_traitsINS_9allocatorIiEEE9constructIiJRKiEEEvRS2_PT_DpOT0_.exit.i
                                        ##   in Loop: Header=BB85_4 Depth=1
	addq	$4, %rax
	movq	%rax, _texture_id+8(%rip)
	jmp	LBB85_9
	.align	4, 0x90
LBB85_8:                                ##   in Loop: Header=BB85_4 Depth=1
	movq	%r15, %rdi
	movq	%r14, %rsi
	callq	__ZNSt3__16vectorIiNS_9allocatorIiEEE21__push_back_slow_pathIRKiEEvOT_
LBB85_9:                                ## %_ZNSt3__16vectorIiNS_9allocatorIiEEE9push_backERKi.exit
                                        ##   in Loop: Header=BB85_4 Depth=1
	testl	%ebx, %ebx
	jne	LBB85_10
LBB85_11:                               ## %_ZNSt3__16vectorIiNS_9allocatorIiEEE6resizeEm.exit._crit_edge
	addq	$8, %rsp
	popq	%rbx
	popq	%r14
	popq	%r15
	popq	%rbp
	retq
	.cfi_endproc

	.globl	_write_obj
	.align	4, 0x90
_write_obj:                             ## @write_obj
	.cfi_startproc
## BB#0:
	pushq	%rbp
Ltmp681:
	.cfi_def_cfa_offset 16
Ltmp682:
	.cfi_offset %rbp, -16
	movq	%rsp, %rbp
Ltmp683:
	.cfi_def_cfa_register %rbp
	pushq	%rbx
	subq	$40, %rsp
Ltmp684:
	.cfi_offset %rbx, -24
	movq	%r8, %rax
	movl	%ecx, %ebx
	movl	%edx, %ecx
	movl	%esi, %edx
	movl	%edi, %esi
	movq	%r9, (%rsp)
	leaq	-32(%rbp), %rdi
	movl	%ebx, %r8d
	movq	%rax, %r9
	callq	__Z11recieve_objiiiiPdPi
	movq	_obj_vertices(%rip), %rbx
	testq	%rbx, %rbx
	je	LBB86_6
## BB#1:
	movq	_obj_vertices+8(%rip), %rax
	cmpq	%rbx, %rax
	je	LBB86_5
	.align	4, 0x90
LBB86_2:                                ## %.lr.ph.i.i.i.i.i.i
                                        ## =>This Inner Loop Header: Depth=1
	leaq	-24(%rax), %rcx
	movq	%rcx, _obj_vertices+8(%rip)
	movq	-24(%rax), %rdi
	testq	%rdi, %rdi
	je	LBB86_3
## BB#7:                                ##   in Loop: Header=BB86_2 Depth=1
	movq	-16(%rax), %rcx
	cmpq	%rdi, %rcx
	je	LBB86_9
## BB#8:                                ## %.lr.ph.i.i.i.i.i.i.i.i.i.i.i.i.i.i
                                        ##   in Loop: Header=BB86_2 Depth=1
	leaq	-32(%rcx), %rdx
	subq	%rdi, %rdx
	notq	%rdx
	andq	$-32, %rdx
	addq	%rcx, %rdx
	movq	%rdx, -16(%rax)
LBB86_9:                                ## %_ZNSt3__113__vector_baseIN5Eigen6MatrixIdLi4ELi1ELi0ELi4ELi1EEENS_9allocatorIS3_EEE5clearEv.exit.i.i.i.i.i.i.i.i.i.i.i.i
                                        ##   in Loop: Header=BB86_2 Depth=1
	callq	__ZdlPv
	movq	_obj_vertices+8(%rip), %rcx
LBB86_3:                                ## %_ZNSt3__116allocator_traitsINS_9allocatorINS_6vectorIN5Eigen6MatrixIdLi4ELi1ELi0ELi4ELi1EEENS1_IS5_EEEEEEE7destroyIS7_EEvRS8_PT_.exit.backedge.i.i.i.i.i.i
                                        ##   in Loop: Header=BB86_2 Depth=1
	cmpq	%rbx, %rcx
	movq	%rcx, %rax
	jne	LBB86_2
## BB#4:                                ## %_ZNSt3__16vectorINS0_IN5Eigen6MatrixIdLi4ELi1ELi0ELi4ELi1EEENS_9allocatorIS3_EEEENS4_IS6_EEE5clearEv.exit.loopexit.i.i.i
	movq	_obj_vertices(%rip), %rbx
LBB86_5:                                ## %_ZNSt3__16vectorINS0_IN5Eigen6MatrixIdLi4ELi1ELi0ELi4ELi1EEENS_9allocatorIS3_EEEENS4_IS6_EEE5clearEv.exit.i.i.i
	movq	%rbx, %rdi
	callq	__ZdlPv
	xorps	%xmm0, %xmm0
	movaps	%xmm0, _obj_vertices(%rip)
	movq	$0, _obj_vertices+16(%rip)
LBB86_6:                                ## %_ZNSt3__16vectorINS0_IN5Eigen6MatrixIdLi4ELi1ELi0ELi4ELi1EEENS_9allocatorIS3_EEEENS4_IS6_EEED1Ev.exit
	movaps	-32(%rbp), %xmm0
	movaps	%xmm0, _obj_vertices(%rip)
	movq	-16(%rbp), %rax
	movq	%rax, _obj_vertices+16(%rip)
	addq	$40, %rsp
	popq	%rbx
	popq	%rbp
	retq
	.cfi_endproc

	.section	__TEXT,__textcoal_nt,coalesced,pure_instructions
	.globl	__Z11recieve_objiiiiPdPi
	.weak_def_can_be_hidden	__Z11recieve_objiiiiPdPi
	.align	4, 0x90
__Z11recieve_objiiiiPdPi:               ## @_Z11recieve_objiiiiPdPi
	.cfi_startproc
	.cfi_personality 155, ___gxx_personality_v0
Leh_func_begin87:
	.cfi_lsda 16, Lexception87
## BB#0:
	pushq	%rbp
Ltmp734:
	.cfi_def_cfa_offset 16
Ltmp735:
	.cfi_offset %rbp, -16
	movq	%rsp, %rbp
Ltmp736:
	.cfi_def_cfa_register %rbp
	pushq	%r15
	pushq	%r14
	pushq	%r13
	pushq	%r12
	pushq	%rbx
	subq	$392, %rsp              ## imm = 0x188
Ltmp737:
	.cfi_offset %rbx, -56
Ltmp738:
	.cfi_offset %r12, -48
Ltmp739:
	.cfi_offset %r13, -40
Ltmp740:
	.cfi_offset %r14, -32
Ltmp741:
	.cfi_offset %r15, -24
	movq	%r9, %r12
	movl	%r8d, -384(%rbp)        ## 4-byte Spill
	movl	%ecx, -380(%rbp)        ## 4-byte Spill
	movl	%edx, %r14d
                                        ## kill: ESI<def> ESI<kill> RSI<def>
	movq	%rsi, -376(%rbp)        ## 8-byte Spill
	movq	%rdi, -392(%rbp)        ## 8-byte Spill
	xorps	%xmm0, %xmm0
	movaps	%xmm0, -64(%rbp)
	movaps	%xmm0, -80(%rbp)
	movaps	%xmm0, -96(%rbp)
	movaps	%xmm0, -128(%rbp)
	movq	$0, -112(%rbp)
	movaps	%xmm0, -160(%rbp)
	movq	$0, -144(%rbp)
	movaps	%xmm0, -192(%rbp)
	movq	$0, -176(%rbp)
	testl	%esi, %esi
	jle	LBB87_8
## BB#1:                                ## %.lr.ph198
	movl	$3, %r13d
	xorl	%r15d, %r15d
	xorl	%ecx, %ecx
	xorl	%eax, %eax
	jmp	LBB87_2
	.align	4, 0x90
LBB87_18:                               ## %_ZNSt3__16vectorIN5Eigen6MatrixIdLi4ELi1ELi0ELi4ELi1EEENS_9allocatorIS3_EEE9push_backEOS3_.exit._crit_edge
                                        ##   in Loop: Header=BB87_2 Depth=1
	addl	$4, %r13d
	movq	-120(%rbp), %rax
	movq	-112(%rbp), %rcx
LBB87_2:                                ## =>This Inner Loop Header: Depth=1
	movslq	%r13d, %rdx
	leal	-1(%rdx), %esi
	movslq	%esi, %rsi
	leal	-2(%rdx), %edi
	movslq	%edi, %rdi
	leal	-3(%rdx), %ebx
	movslq	%ebx, %rbx
	movsd	(%r12,%rbx,8), %xmm0
	movsd	%xmm0, -224(%rbp)
	movsd	(%r12,%rdi,8), %xmm0
	movsd	%xmm0, -216(%rbp)
	movsd	(%r12,%rsi,8), %xmm0
	movsd	%xmm0, -208(%rbp)
	movsd	(%r12,%rdx,8), %xmm0
	movsd	%xmm0, -200(%rbp)
	cmpq	%rcx, %rax
	jae	LBB87_16
## BB#3:                                ##   in Loop: Header=BB87_2 Depth=1
	testq	%rax, %rax
	movl	$0, %ecx
	je	LBB87_7
## BB#4:                                ##   in Loop: Header=BB87_2 Depth=1
	testb	$15, %al
	jne	LBB87_5
LBB87_6:                                ## %_ZN5Eigen6MatrixIdLi4ELi1ELi0ELi4ELi1EEC1ERKS1_.exit.i.i.i.i
                                        ##   in Loop: Header=BB87_2 Depth=1
	movaps	-224(%rbp), %xmm0
	movaps	%xmm0, (%rax)
	movaps	-208(%rbp), %xmm0
	movaps	%xmm0, 16(%rax)
	movq	-120(%rbp), %rcx
LBB87_7:                                ## %_ZNSt3__116allocator_traitsINS_9allocatorIN5Eigen6MatrixIdLi4ELi1ELi0ELi4ELi1EEEEEE9constructIS4_JS4_EEEvRS5_PT_DpOT0_.exit.i
                                        ##   in Loop: Header=BB87_2 Depth=1
	addq	$32, %rcx
	movq	%rcx, -120(%rbp)
	jmp	LBB87_17
	.align	4, 0x90
LBB87_16:                               ##   in Loop: Header=BB87_2 Depth=1
Ltmp685:
	leaq	-128(%rbp), %rdi
	leaq	-224(%rbp), %rsi
	callq	__ZNSt3__16vectorIN5Eigen6MatrixIdLi4ELi1ELi0ELi4ELi1EEENS_9allocatorIS3_EEE21__push_back_slow_pathIS3_EEvOT_
Ltmp686:
LBB87_17:                               ## %_ZNSt3__16vectorIN5Eigen6MatrixIdLi4ELi1ELi0ELi4ELi1EEENS_9allocatorIS3_EEE9push_backEOS3_.exit
                                        ##   in Loop: Header=BB87_2 Depth=1
	incl	%r15d
	movq	-376(%rbp), %rax        ## 8-byte Reload
	cmpl	%eax, %r15d
	jl	LBB87_18
	jmp	LBB87_8
LBB87_5:                                ##   in Loop: Header=BB87_2 Depth=1
Ltmp688:
	leaq	L___func__._ZN5Eigen8internal11plain_arrayIdLi4ELi0ELi16EEC2Ev(%rip), %rdi
	leaq	L_.str46(%rip), %rsi
	leaq	L_.str47(%rip), %rcx
	movl	$86, %edx
	callq	___assert_rtn
Ltmp689:
	jmp	LBB87_6
LBB87_8:                                ## %.preheader187
	testl	%r14d, %r14d
	jle	LBB87_24
## BB#9:                                ## %.lr.ph192
	movq	-376(%rbp), %rax        ## 8-byte Reload
	leal	3(,%rax,4), %ebx
	xorl	%r15d, %r15d
	leaq	-256(%rbp), %r13
	.align	4, 0x90
LBB87_10:                               ## =>This Inner Loop Header: Depth=1
	movslq	%ebx, %rax
	leal	-1(%rax), %ecx
	movslq	%ecx, %rcx
	leal	-2(%rax), %edx
	movslq	%edx, %rdx
	leal	-3(%rax), %esi
	movslq	%esi, %rsi
	movsd	(%r12,%rsi,8), %xmm0
	movsd	%xmm0, -256(%rbp)
	movsd	(%r12,%rdx,8), %xmm0
	movsd	%xmm0, -248(%rbp)
	movsd	(%r12,%rcx,8), %xmm0
	movsd	%xmm0, -240(%rbp)
	movsd	(%r12,%rax,8), %xmm0
	movsd	%xmm0, -232(%rbp)
	movq	-152(%rbp), %rax
	cmpq	-144(%rbp), %rax
	jae	LBB87_32
## BB#11:                               ##   in Loop: Header=BB87_10 Depth=1
	testq	%rax, %rax
	movl	$0, %ecx
	je	LBB87_15
## BB#12:                               ##   in Loop: Header=BB87_10 Depth=1
	testb	$15, %al
	jne	LBB87_13
LBB87_14:                               ## %_ZN5Eigen6MatrixIdLi4ELi1ELi0ELi4ELi1EEC1ERKS1_.exit.i.i.i.i15
                                        ##   in Loop: Header=BB87_10 Depth=1
	movaps	-256(%rbp), %xmm0
	movaps	%xmm0, (%rax)
	movaps	-240(%rbp), %xmm0
	movaps	%xmm0, 16(%rax)
	movq	-152(%rbp), %rcx
LBB87_15:                               ## %_ZNSt3__116allocator_traitsINS_9allocatorIN5Eigen6MatrixIdLi4ELi1ELi0ELi4ELi1EEEEEE9constructIS4_JS4_EEEvRS5_PT_DpOT0_.exit.i16
                                        ##   in Loop: Header=BB87_10 Depth=1
	addq	$32, %rcx
	movq	%rcx, -152(%rbp)
	jmp	LBB87_33
	.align	4, 0x90
LBB87_32:                               ##   in Loop: Header=BB87_10 Depth=1
Ltmp690:
	leaq	-160(%rbp), %rdi
	movq	%r13, %rsi
	callq	__ZNSt3__16vectorIN5Eigen6MatrixIdLi4ELi1ELi0ELi4ELi1EEENS_9allocatorIS3_EEE21__push_back_slow_pathIS3_EEvOT_
Ltmp691:
LBB87_33:                               ## %_ZNSt3__16vectorIN5Eigen6MatrixIdLi4ELi1ELi0ELi4ELi1EEENS_9allocatorIS3_EEE9push_backEOS3_.exit19
                                        ##   in Loop: Header=BB87_10 Depth=1
	addl	$4, %ebx
	incl	%r15d
	cmpl	%r14d, %r15d
	jl	LBB87_10
	jmp	LBB87_24
LBB87_13:                               ##   in Loop: Header=BB87_10 Depth=1
Ltmp693:
	leaq	L___func__._ZN5Eigen8internal11plain_arrayIdLi4ELi0ELi16EEC2Ev(%rip), %rdi
	leaq	L_.str46(%rip), %rsi
	leaq	L_.str47(%rip), %rcx
	movl	$86, %edx
	callq	___assert_rtn
Ltmp694:
	jmp	LBB87_14
LBB87_24:                               ## %.preheader179
	cmpl	$0, -380(%rbp)          ## 4-byte Folded Reload
	jle	LBB87_36
## BB#25:                               ## %.lr.ph186
	movq	-376(%rbp), %rax        ## 8-byte Reload
	addl	%eax, %r14d
	leal	3(,%r14,4), %r13d
	xorl	%ebx, %ebx
	leaq	-192(%rbp), %r14
	leaq	-288(%rbp), %r15
	.align	4, 0x90
LBB87_26:                               ## =>This Inner Loop Header: Depth=1
	movslq	%r13d, %rax
	leal	-1(%rax), %ecx
	movslq	%ecx, %rcx
	leal	-2(%rax), %edx
	movslq	%edx, %rdx
	leal	-3(%rax), %esi
	movslq	%esi, %rsi
	movsd	(%r12,%rsi,8), %xmm0
	movsd	%xmm0, -288(%rbp)
	movsd	(%r12,%rdx,8), %xmm0
	movsd	%xmm0, -280(%rbp)
	movsd	(%r12,%rcx,8), %xmm0
	movsd	%xmm0, -272(%rbp)
	movsd	(%r12,%rax,8), %xmm0
	movsd	%xmm0, -264(%rbp)
	movq	-184(%rbp), %rax
	cmpq	-176(%rbp), %rax
	jae	LBB87_34
## BB#27:                               ##   in Loop: Header=BB87_26 Depth=1
	testq	%rax, %rax
	movl	$0, %ecx
	je	LBB87_31
## BB#28:                               ##   in Loop: Header=BB87_26 Depth=1
	testb	$15, %al
	jne	LBB87_29
LBB87_30:                               ## %_ZN5Eigen6MatrixIdLi4ELi1ELi0ELi4ELi1EEC1ERKS1_.exit.i.i.i.i23
                                        ##   in Loop: Header=BB87_26 Depth=1
	movaps	-288(%rbp), %xmm0
	movaps	%xmm0, (%rax)
	movaps	-272(%rbp), %xmm0
	movaps	%xmm0, 16(%rax)
	movq	-184(%rbp), %rcx
LBB87_31:                               ## %_ZNSt3__116allocator_traitsINS_9allocatorIN5Eigen6MatrixIdLi4ELi1ELi0ELi4ELi1EEEEEE9constructIS4_JS4_EEEvRS5_PT_DpOT0_.exit.i24
                                        ##   in Loop: Header=BB87_26 Depth=1
	addq	$32, %rcx
	movq	%rcx, -184(%rbp)
	jmp	LBB87_35
	.align	4, 0x90
LBB87_34:                               ##   in Loop: Header=BB87_26 Depth=1
Ltmp695:
	movq	%r14, %rdi
	movq	%r15, %rsi
	callq	__ZNSt3__16vectorIN5Eigen6MatrixIdLi4ELi1ELi0ELi4ELi1EEENS_9allocatorIS3_EEE21__push_back_slow_pathIS3_EEvOT_
Ltmp696:
LBB87_35:                               ## %_ZNSt3__16vectorIN5Eigen6MatrixIdLi4ELi1ELi0ELi4ELi1EEENS_9allocatorIS3_EEE9push_backEOS3_.exit27
                                        ##   in Loop: Header=BB87_26 Depth=1
	addl	$4, %r13d
	incl	%ebx
	cmpl	-380(%rbp), %ebx        ## 4-byte Folded Reload
	jl	LBB87_26
	jmp	LBB87_36
LBB87_29:                               ##   in Loop: Header=BB87_26 Depth=1
Ltmp698:
	leaq	L___func__._ZN5Eigen8internal11plain_arrayIdLi4ELi0ELi16EEC2Ev(%rip), %rdi
	leaq	L_.str46(%rip), %rsi
	leaq	L_.str47(%rip), %rcx
	movl	$86, %edx
	callq	___assert_rtn
Ltmp699:
	jmp	LBB87_30
LBB87_22:                               ## %.nonloopexit181.nonloopexit.nonloopexit
Ltmp724:
	movq	%rax, %r14
	jmp	LBB87_169
LBB87_36:                               ## %._crit_edge
	movq	16(%rbp), %r15
	movq	-96(%rbp), %rbx
	movq	-88(%rbp), %rax
	movq	%rax, %rdx
	subq	%rbx, %rdx
	sarq	$3, %rdx
	movabsq	$-6148914691236517205, %rcx ## imm = 0xAAAAAAAAAAAAAAAB
	imulq	%rdx, %rcx
	cmpq	$2, %rcx
	ja	LBB87_38
## BB#37:
	movl	$3, %esi
	subq	%rcx, %rsi
Ltmp700:
	leaq	-96(%rbp), %rdi
	callq	__ZNSt3__16vectorINS0_IN5Eigen6MatrixIdLi4ELi1ELi0ELi4ELi1EEENS_9allocatorIS3_EEEENS4_IS6_EEE8__appendEm
Ltmp701:
	jmp	LBB87_42
LBB87_21:                               ## %.nonloopexit181.nonloopexit.loopexit
Ltmp687:
	movq	%rax, %r14
	jmp	LBB87_169
LBB87_38:
	cmpq	$4, %rcx
	jb	LBB87_42
## BB#39:
	addq	$72, %rbx
	cmpq	%rbx, %rax
	je	LBB87_42
	.align	4, 0x90
LBB87_40:                               ## %.lr.ph.i.i.i
                                        ## =>This Inner Loop Header: Depth=1
	leaq	-24(%rax), %rcx
	movq	%rcx, -88(%rbp)
	movq	-24(%rax), %rdi
	testq	%rdi, %rdi
	je	LBB87_41
## BB#57:                               ##   in Loop: Header=BB87_40 Depth=1
	movq	-16(%rax), %rcx
	cmpq	%rdi, %rcx
	je	LBB87_59
## BB#58:                               ## %.lr.ph.i.i.i.i.i.i.i.i.i.i.i
                                        ##   in Loop: Header=BB87_40 Depth=1
	leaq	-32(%rcx), %rdx
	subq	%rdi, %rdx
	notq	%rdx
	andq	$-32, %rdx
	addq	%rcx, %rdx
	movq	%rdx, -16(%rax)
LBB87_59:                               ## %_ZNSt3__113__vector_baseIN5Eigen6MatrixIdLi4ELi1ELi0ELi4ELi1EEENS_9allocatorIS3_EEE5clearEv.exit.i.i.i.i.i.i.i.i.i
                                        ##   in Loop: Header=BB87_40 Depth=1
	callq	__ZdlPv
	movq	-88(%rbp), %rcx
LBB87_41:                               ## %_ZNSt3__116allocator_traitsINS_9allocatorINS_6vectorIN5Eigen6MatrixIdLi4ELi1ELi0ELi4ELi1EEENS1_IS5_EEEEEEE7destroyIS7_EEvRS8_PT_.exit.backedge.i.i.i
                                        ##   in Loop: Header=BB87_40 Depth=1
	cmpq	%rbx, %rcx
	movq	%rcx, %rax
	jne	LBB87_40
LBB87_42:                               ## %_ZNSt3__16vectorINS0_IN5Eigen6MatrixIdLi4ELi1ELi0ELi4ELi1EEENS_9allocatorIS3_EEEENS4_IS6_EEE6resizeEm.exit
	movq	-96(%rbp), %rax
	leaq	-128(%rbp), %rdi
	cmpq	%rdi, %rax
	je	LBB87_45
## BB#43:
	movq	-128(%rbp), %rsi
	movq	-120(%rbp), %rdx
Ltmp702:
	movq	%rax, %rdi
	callq	__ZNSt3__16vectorIN5Eigen6MatrixIdLi4ELi1ELi0ELi4ELi1EEENS_9allocatorIS3_EEE6assignIPS3_EENS_9enable_ifIXaasr21__is_forward_iteratorIT_EE5valuesr16is_constructibleIS3_NS_15iterator_traitsISA_E9referenceEEE5valueEvE4typeESA_SA_
Ltmp703:
## BB#44:                               ## %._ZNSt3__16vectorIN5Eigen6MatrixIdLi4ELi1ELi0ELi4ELi1EEENS_9allocatorIS3_EEEaSERKS6_.exit_crit_edge
	movq	-96(%rbp), %rdi
LBB87_45:                               ## %_ZNSt3__16vectorIN5Eigen6MatrixIdLi4ELi1ELi0ELi4ELi1EEENS_9allocatorIS3_EEEaSERKS6_.exit
	leaq	24(%rdi), %rax
	leaq	-160(%rbp), %rcx
	cmpq	%rcx, %rax
	je	LBB87_48
## BB#46:
	movq	-160(%rbp), %rsi
	movq	-152(%rbp), %rdx
Ltmp704:
	movq	%rax, %rdi
	callq	__ZNSt3__16vectorIN5Eigen6MatrixIdLi4ELi1ELi0ELi4ELi1EEENS_9allocatorIS3_EEE6assignIPS3_EENS_9enable_ifIXaasr21__is_forward_iteratorIT_EE5valuesr16is_constructibleIS3_NS_15iterator_traitsISA_E9referenceEEE5valueEvE4typeESA_SA_
Ltmp705:
## BB#47:                               ## %._ZNSt3__16vectorIN5Eigen6MatrixIdLi4ELi1ELi0ELi4ELi1EEENS_9allocatorIS3_EEEaSERKS6_.exit31_crit_edge
	movq	-96(%rbp), %rdi
LBB87_48:                               ## %_ZNSt3__16vectorIN5Eigen6MatrixIdLi4ELi1ELi0ELi4ELi1EEENS_9allocatorIS3_EEEaSERKS6_.exit31
	addq	$48, %rdi
	leaq	-192(%rbp), %rax
	cmpq	%rax, %rdi
	je	LBB87_50
## BB#49:
	movq	-192(%rbp), %rsi
	movq	-184(%rbp), %rdx
Ltmp706:
	callq	__ZNSt3__16vectorIN5Eigen6MatrixIdLi4ELi1ELi0ELi4ELi1EEENS_9allocatorIS3_EEE6assignIPS3_EENS_9enable_ifIXaasr21__is_forward_iteratorIT_EE5valuesr16is_constructibleIS3_NS_15iterator_traitsISA_E9referenceEEE5valueEvE4typeESA_SA_
Ltmp707:
LBB87_50:                               ## %_ZNSt3__16vectorIN5Eigen6MatrixIdLi4ELi1ELi0ELi4ELi1EEENS_9allocatorIS3_EEEaSERKS6_.exit33.preheader
	cmpl	$0, -384(%rbp)          ## 4-byte Folded Reload
	jle	LBB87_97
## BB#51:                               ## %.lr.ph
	xorl	%eax, %eax
	movl	$1, %r13d
	movl	$2, -420(%rbp)          ## 4-byte Folded Spill
	xorps	%xmm0, %xmm0
	leaq	-320(%rbp), %r14
	xorl	%ecx, %ecx
LBB87_52:                               ## =>This Loop Header: Depth=1
                                        ##     Child Loop BB87_53 Depth 2
                                        ##     Child Loop BB87_63 Depth 2
                                        ##     Child Loop BB87_80 Depth 2
	movq	%rcx, -408(%rbp)        ## 8-byte Spill
	movl	%r13d, -380(%rbp)       ## 4-byte Spill
	movq	%rax, -416(%rbp)        ## 8-byte Spill
	cltq
	leaq	(%r15,%rax,4), %rbx
	movaps	%xmm0, -320(%rbp)
	movq	$0, -304(%rbp)
	leal	(%rcx,%rcx,8), %eax
	movq	%rax, -400(%rbp)        ## 8-byte Spill
	xorl	%r13d, %r13d
	xorl	%esi, %esi
	xorl	%ecx, %ecx
	jmp	LBB87_53
	.align	4, 0x90
LBB87_67:                               ## %_ZNSt3__16vectorIiNS_9allocatorIiEEE9push_backERKi.exit._crit_edge
                                        ##   in Loop: Header=BB87_53 Depth=2
	addq	$12, %rbx
	movq	-312(%rbp), %rcx
	movq	-304(%rbp), %rsi
LBB87_53:                               ##   Parent Loop BB87_52 Depth=1
                                        ## =>  This Inner Loop Header: Depth=2
	cmpq	%rsi, %rcx
	je	LBB87_60
## BB#54:                               ##   in Loop: Header=BB87_53 Depth=2
	testq	%rcx, %rcx
	je	LBB87_56
## BB#55:                               ##   in Loop: Header=BB87_53 Depth=2
	movl	(%rbx), %eax
	movl	%eax, (%rcx)
LBB87_56:                               ## %_ZNSt3__116allocator_traitsINS_9allocatorIiEEE9constructIiJRKiEEEvRS2_PT_DpOT0_.exit.i
                                        ##   in Loop: Header=BB87_53 Depth=2
	addq	$4, %rcx
	movq	%rcx, -312(%rbp)
	jmp	LBB87_61
	.align	4, 0x90
LBB87_60:                               ##   in Loop: Header=BB87_53 Depth=2
Ltmp708:
	movq	%r14, %rdi
	movq	%rbx, %rsi
	callq	__ZNSt3__16vectorIiNS_9allocatorIiEEE21__push_back_slow_pathIRKiEEvOT_
Ltmp709:
LBB87_61:                               ## %_ZNSt3__16vectorIiNS_9allocatorIiEEE9push_backERKi.exit
                                        ##   in Loop: Header=BB87_53 Depth=2
	incl	%r13d
	xorl	%r12d, %r12d
	cmpl	$2, %r13d
	jle	LBB87_67
## BB#62:                               ##   in Loop: Header=BB87_52 Depth=1
	movl	-380(%rbp), %r13d       ## 4-byte Reload
	movl	%r13d, %ebx
	.align	4, 0x90
LBB87_63:                               ##   Parent Loop BB87_52 Depth=1
                                        ## =>  This Inner Loop Header: Depth=2
	movslq	%ebx, %rax
	leaq	(%r15,%rax,4), %rsi
	movq	-312(%rbp), %rax
	cmpq	-304(%rbp), %rax
	je	LBB87_75
## BB#64:                               ##   in Loop: Header=BB87_63 Depth=2
	testq	%rax, %rax
	je	LBB87_66
## BB#65:                               ##   in Loop: Header=BB87_63 Depth=2
	movl	(%rsi), %ecx
	movl	%ecx, (%rax)
LBB87_66:                               ## %_ZNSt3__116allocator_traitsINS_9allocatorIiEEE9constructIiJRKiEEEvRS2_PT_DpOT0_.exit.i35
                                        ##   in Loop: Header=BB87_63 Depth=2
	addq	$4, %rax
	movq	%rax, -312(%rbp)
	jmp	LBB87_76
	.align	4, 0x90
LBB87_75:                               ##   in Loop: Header=BB87_63 Depth=2
Ltmp711:
	movq	%r14, %rdi
	callq	__ZNSt3__16vectorIiNS_9allocatorIiEEE21__push_back_slow_pathIRKiEEvOT_
Ltmp712:
LBB87_76:                               ## %_ZNSt3__16vectorIiNS_9allocatorIiEEE9push_backERKi.exit37
                                        ##   in Loop: Header=BB87_63 Depth=2
	addl	$3, %ebx
	incl	%r12d
	cmpl	$3, %r12d
	jl	LBB87_63
## BB#77:                               ##   in Loop: Header=BB87_52 Depth=1
	movq	-400(%rbp), %rcx        ## 8-byte Reload
	leal	2(%rcx), %eax
	cltq
	cmpl	$-1, (%r15,%rax,4)
	je	LBB87_86
## BB#78:                               ##   in Loop: Header=BB87_52 Depth=1
	leal	5(%rcx), %eax
	cltq
	cmpl	$-1, (%r15,%rax,4)
	je	LBB87_86
## BB#79:                               ##   in Loop: Header=BB87_52 Depth=1
	addl	$8, %ecx
	movslq	%ecx, %rax
	xorl	%r12d, %r12d
	cmpl	$-1, (%r15,%rax,4)
	movl	-420(%rbp), %ebx        ## 4-byte Reload
	je	LBB87_86
	.align	4, 0x90
LBB87_80:                               ## %.preheader
                                        ##   Parent Loop BB87_52 Depth=1
                                        ## =>  This Inner Loop Header: Depth=2
	movslq	%ebx, %rax
	leaq	(%r15,%rax,4), %rsi
	movq	-312(%rbp), %rax
	cmpq	-304(%rbp), %rax
	je	LBB87_84
## BB#81:                               ##   in Loop: Header=BB87_80 Depth=2
	testq	%rax, %rax
	je	LBB87_83
## BB#82:                               ##   in Loop: Header=BB87_80 Depth=2
	movl	(%rsi), %ecx
	movl	%ecx, (%rax)
LBB87_83:                               ## %_ZNSt3__116allocator_traitsINS_9allocatorIiEEE9constructIiJRKiEEEvRS2_PT_DpOT0_.exit.i38
                                        ##   in Loop: Header=BB87_80 Depth=2
	addq	$4, %rax
	movq	%rax, -312(%rbp)
	jmp	LBB87_85
	.align	4, 0x90
LBB87_84:                               ##   in Loop: Header=BB87_80 Depth=2
Ltmp714:
	movq	%r14, %rdi
	callq	__ZNSt3__16vectorIiNS_9allocatorIiEEE21__push_back_slow_pathIRKiEEvOT_
Ltmp715:
LBB87_85:                               ## %_ZNSt3__16vectorIiNS_9allocatorIiEEE9push_backERKi.exit40
                                        ##   in Loop: Header=BB87_80 Depth=2
	addl	$3, %ebx
	incl	%r12d
	cmpl	$3, %r12d
	jl	LBB87_80
LBB87_86:                               ## %.loopexit174
                                        ##   in Loop: Header=BB87_52 Depth=1
	movq	-64(%rbp), %rdi
	cmpq	-56(%rbp), %rdi
	je	LBB87_91
## BB#87:                               ##   in Loop: Header=BB87_52 Depth=1
	testq	%rdi, %rdi
	movl	$0, %eax
	je	LBB87_90
## BB#88:                               ##   in Loop: Header=BB87_52 Depth=1
Ltmp717:
	movq	%r14, %rsi
	callq	__ZNSt3__16vectorIiNS_9allocatorIiEEEC2ERKS3_
Ltmp718:
## BB#89:                               ## %.noexc42
                                        ##   in Loop: Header=BB87_52 Depth=1
	movq	-64(%rbp), %rax
LBB87_90:                               ## %_ZNSt3__116allocator_traitsINS_9allocatorINS_6vectorIiNS1_IiEEEEEEE9constructIS4_JRKS4_EEEvRS5_PT_DpOT0_.exit.i
                                        ##   in Loop: Header=BB87_52 Depth=1
	addq	$24, %rax
	movq	%rax, -64(%rbp)
	xorps	%xmm0, %xmm0
	movq	-408(%rbp), %rcx        ## 8-byte Reload
	jmp	LBB87_92
LBB87_91:                               ##   in Loop: Header=BB87_52 Depth=1
Ltmp719:
	leaq	-72(%rbp), %rdi
	movq	%r14, %rsi
	callq	__ZNSt3__16vectorINS0_IiNS_9allocatorIiEEEENS1_IS3_EEE21__push_back_slow_pathIRKS3_EEvOT_
Ltmp720:
	xorps	%xmm0, %xmm0
	movq	-408(%rbp), %rcx        ## 8-byte Reload
LBB87_92:                               ## %_ZNSt3__16vectorINS0_IiNS_9allocatorIiEEEENS1_IS3_EEE9push_backERKS3_.exit
                                        ##   in Loop: Header=BB87_52 Depth=1
	movq	-320(%rbp), %rdi
	testq	%rdi, %rdi
	je	LBB87_96
## BB#93:                               ##   in Loop: Header=BB87_52 Depth=1
	movq	%rcx, %rbx
	movq	-312(%rbp), %rax
	cmpq	%rdi, %rax
	je	LBB87_95
## BB#94:                               ## %.lr.ph.i.i.i.i.i47
                                        ##   in Loop: Header=BB87_52 Depth=1
	leaq	-4(%rax), %rcx
	subq	%rdi, %rcx
	notq	%rcx
	andq	$-4, %rcx
	addq	%rax, %rcx
	movq	%rcx, -312(%rbp)
LBB87_95:                               ## %_ZNSt3__113__vector_baseIiNS_9allocatorIiEEE5clearEv.exit.i.i.i48
                                        ##   in Loop: Header=BB87_52 Depth=1
	callq	__ZdlPv
	xorps	%xmm0, %xmm0
	movq	%rbx, %rcx
LBB87_96:                               ## %_ZNSt3__16vectorIiNS_9allocatorIiEEED1Ev.exit49
                                        ##   in Loop: Header=BB87_52 Depth=1
	incq	%rcx
	movq	-416(%rbp), %rax        ## 8-byte Reload
	addl	$9, %eax
	addl	$9, %r13d
	addl	$9, -420(%rbp)          ## 4-byte Folded Spill
	cmpl	-384(%rbp), %ecx        ## 4-byte Folded Reload
	jl	LBB87_52
LBB87_97:                               ## %_ZNSt3__16vectorIN5Eigen6MatrixIdLi4ELi1ELi0ELi4ELi1EEENS_9allocatorIS3_EEEaSERKS6_.exit33._crit_edge
Ltmp722:
	leaq	-368(%rbp), %rdi
	leaq	-96(%rbp), %rsi
	callq	__ZNSt3__16vectorINS0_IN5Eigen6MatrixIdLi4ELi1ELi0ELi4ELi1EEENS_9allocatorIS3_EEEENS4_IS6_EEEC2ERKS8_
Ltmp723:
## BB#98:                               ## %.noexc61
	leaq	-344(%rbp), %rdi
	leaq	-72(%rbp), %rsi
Ltmp725:
	callq	__ZNSt3__16vectorINS0_IiNS_9allocatorIiEEEENS1_IS3_EEEC2ERKS5_
Ltmp726:
## BB#99:                               ## %_ZNSt3__14pairINS_6vectorINS1_IN5Eigen6MatrixIdLi4ELi1ELi0ELi4ELi1EEENS_9allocatorIS4_EEEENS5_IS7_EEEENS1_INS1_IiNS5_IiEEEENS5_ISB_EEEEEC1IRSE_vEEOT_.exit
Ltmp728:
	leaq	-368(%rbp), %rsi
	movq	-392(%rbp), %r14        ## 8-byte Reload
	movq	%r14, %rdi
	movq	-376(%rbp), %rdx        ## 8-byte Reload
                                        ## kill: EDX<def> EDX<kill> RDX<kill>
	movl	-384(%rbp), %ecx        ## 4-byte Reload
	callq	__Z16combine_verticesNSt3__14pairINS_6vectorINS1_IN5Eigen6MatrixIdLi4ELi1ELi0ELi4ELi1EEENS_9allocatorIS4_EEEENS5_IS7_EEEENS1_INS1_IiNS5_IiEEEENS5_ISB_EEEEEEii
Ltmp729:
## BB#100:
	movq	-344(%rbp), %rbx
	testq	%rbx, %rbx
	je	LBB87_106
## BB#101:
	movq	-336(%rbp), %rax
	cmpq	%rbx, %rax
	je	LBB87_105
	.align	4, 0x90
LBB87_102:                              ## %.lr.ph.i.i.i.i.i.i.i62
                                        ## =>This Inner Loop Header: Depth=1
	leaq	-24(%rax), %rcx
	movq	%rcx, -336(%rbp)
	movq	-24(%rax), %rdi
	testq	%rdi, %rdi
	je	LBB87_103
## BB#144:                              ##   in Loop: Header=BB87_102 Depth=1
	movq	-16(%rax), %rcx
	cmpq	%rdi, %rcx
	je	LBB87_146
## BB#145:                              ## %.lr.ph.i.i.i.i.i.i.i.i.i.i.i.i.i.i.i67
                                        ##   in Loop: Header=BB87_102 Depth=1
	leaq	-4(%rcx), %rdx
	subq	%rdi, %rdx
	notq	%rdx
	andq	$-4, %rdx
	addq	%rcx, %rdx
	movq	%rdx, -16(%rax)
LBB87_146:                              ## %_ZNSt3__113__vector_baseIiNS_9allocatorIiEEE5clearEv.exit.i.i.i.i.i.i.i.i.i.i.i.i.i69
                                        ##   in Loop: Header=BB87_102 Depth=1
	callq	__ZdlPv
	movq	-336(%rbp), %rcx
LBB87_103:                              ## %_ZNSt3__116allocator_traitsINS_9allocatorINS_6vectorIiNS1_IiEEEEEEE7destroyIS4_EEvRS5_PT_.exit.backedge.i.i.i.i.i.i.i63
                                        ##   in Loop: Header=BB87_102 Depth=1
	cmpq	%rbx, %rcx
	movq	%rcx, %rax
	jne	LBB87_102
## BB#104:                              ## %_ZNSt3__113__vector_baseINS_6vectorIiNS_9allocatorIiEEEENS2_IS4_EEE5clearEv.exit.loopexit.i.i.i.i.i71
	movq	-344(%rbp), %rbx
LBB87_105:                              ## %_ZNSt3__113__vector_baseINS_6vectorIiNS_9allocatorIiEEEENS2_IS4_EEE5clearEv.exit.i.i.i.i.i72
	movq	%rbx, %rdi
	callq	__ZdlPv
LBB87_106:                              ## %_ZNSt3__16vectorINS0_IiNS_9allocatorIiEEEENS1_IS3_EEED1Ev.exit.i.i73
	movq	-368(%rbp), %rbx
	testq	%rbx, %rbx
	je	LBB87_112
## BB#107:
	movq	-360(%rbp), %rax
	cmpq	%rbx, %rax
	je	LBB87_111
	.align	4, 0x90
LBB87_108:                              ## %.lr.ph.i.i.i.i.i1.i.i74
                                        ## =>This Inner Loop Header: Depth=1
	leaq	-24(%rax), %rcx
	movq	%rcx, -360(%rbp)
	movq	-24(%rax), %rdi
	testq	%rdi, %rdi
	je	LBB87_109
## BB#147:                              ##   in Loop: Header=BB87_108 Depth=1
	movq	-16(%rax), %rcx
	cmpq	%rdi, %rcx
	je	LBB87_149
## BB#148:                              ## %.lr.ph.i.i.i.i.i.i.i.i.i.i.i.i.i5.i.i79
                                        ##   in Loop: Header=BB87_108 Depth=1
	leaq	-32(%rcx), %rdx
	subq	%rdi, %rdx
	notq	%rdx
	andq	$-32, %rdx
	addq	%rcx, %rdx
	movq	%rdx, -16(%rax)
LBB87_149:                              ## %_ZNSt3__113__vector_baseIN5Eigen6MatrixIdLi4ELi1ELi0ELi4ELi1EEENS_9allocatorIS3_EEE5clearEv.exit.i.i.i.i.i.i.i.i.i.i.i.i.i81
                                        ##   in Loop: Header=BB87_108 Depth=1
	callq	__ZdlPv
	movq	-360(%rbp), %rcx
